(dp0
S'METTS MARK'
p1
(dp2
S'to_messages'
p3
I807
sS'deferral_payments'
p4
S'NaN'
p5
sS'missing_bonus'
p6
I0
sS'missing_director_fees'
p7
I1
sS'expenses'
p8
I94299
sS'interaction_with_poi'
p9
F0.04665071770334928
sS'poi'
p10
I00
sS'long_term_incentive'
p11
g5
sS'email_address'
p12
S'mark.metts@enron.com'
p13
sS'from_poi_to_this_person'
p14
I38
sS'deferred_income'
p15
g5
sS'missing_from_messages'
p16
I0
sS'missing_total_stock_value'
p17
I0
sS'missing_exercised_stock_options'
p18
I1
sS'restricted_stock_deferred'
p19
g5
sS'missing_deferral_payments'
p20
I1
sS'shared_receipt_with_poi'
p21
I702
sS'missing_to_messages'
p22
I0
sS'loan_advances'
p23
g5
sS'from_messages'
p24
I29
sS'other'
p25
I1740
sS'missing_loan_advances'
p26
I1
sS'missing_expenses'
p27
I0
sS'director_fees'
p28
g5
sS'bonus'
p29
I600000
sS'total_stock_value'
p30
I585062
sS'missing_other'
p31
I0
sS'missing_from_this_person_to_poi'
p32
I0
sS'from_this_person_to_poi'
p33
I1
sS'missing_from_poi_to_this_person'
p34
I0
sS'restricted_stock'
p35
I585062
sS'salary'
p36
I365788
sS'missing_deferred_income'
p37
I1
sS'total_payments'
p38
I1061827
sS'missing_total_payments'
p39
I0
sS'exercised_stock_options'
p40
g5
sS'missing_salary'
p41
I0
sS'missing_restricted_stock_deferred'
p42
I1
sS'missing_restricted_stock'
p43
I0
sS'missing_shared_receipt_with_poi'
p44
I0
sS'missing_long_term_incentive'
p45
I1
ssS'BAXTER JOHN C'
p46
(dp47
g3
g5
sg4
I1295738
sS'missing_bonus'
p48
I0
sS'missing_director_fees'
p49
I1
sg8
I11200
sg9
S'NaN'
p50
sg10
I00
sg11
I1586055
sg12
g5
sg14
g5
sg15
I-1386055
sS'missing_from_messages'
p51
I1
sS'missing_total_stock_value'
p52
I0
sS'missing_exercised_stock_options'
p53
I0
sg19
g5
sS'missing_deferral_payments'
p54
I0
sg21
g5
sS'missing_to_messages'
p55
I1
sg23
g5
sg24
g5
sg25
I2660303
sS'missing_loan_advances'
p56
I1
sS'missing_expenses'
p57
I0
sg28
g5
sg29
I1200000
sg30
I10623258
sS'missing_other'
p58
I0
sS'missing_from_this_person_to_poi'
p59
I1
sg33
g5
sS'missing_from_poi_to_this_person'
p60
I1
sg35
I3942714
sg36
I267102
sS'missing_deferred_income'
p61
I0
sg38
I5634343
sS'missing_total_payments'
p62
I0
sg40
I6680544
sS'missing_salary'
p63
I0
sS'missing_restricted_stock_deferred'
p64
I1
sS'missing_restricted_stock'
p65
I0
sS'missing_shared_receipt_with_poi'
p66
I1
sS'missing_long_term_incentive'
p67
I0
ssS'ELLIOTT STEVEN'
p68
(dp69
g3
g5
sg4
g5
sS'missing_bonus'
p70
I0
sS'missing_director_fees'
p71
I1
sg8
I78552
sg9
g50
sg10
I00
sg11
g5
sg12
S'steven.elliott@enron.com'
p72
sg14
g5
sg15
I-400729
sS'missing_from_messages'
p73
I1
sS'missing_total_stock_value'
p74
I0
sS'missing_exercised_stock_options'
p75
I0
sg19
g5
sS'missing_deferral_payments'
p76
I1
sg21
g5
sS'missing_to_messages'
p77
I1
sg23
g5
sg24
g5
sg25
I12961
sS'missing_loan_advances'
p78
I1
sS'missing_expenses'
p79
I0
sg28
g5
sg29
I350000
sg30
I6678735
sS'missing_other'
p80
I0
sS'missing_from_this_person_to_poi'
p81
I1
sg33
g5
sS'missing_from_poi_to_this_person'
p82
I1
sg35
I1788391
sg36
I170941
sS'missing_deferred_income'
p83
I0
sg38
I211725
sS'missing_total_payments'
p84
I0
sg40
I4890344
sS'missing_salary'
p85
I0
sS'missing_restricted_stock_deferred'
p86
I1
sS'missing_restricted_stock'
p87
I0
sS'missing_shared_receipt_with_poi'
p88
I1
sS'missing_long_term_incentive'
p89
I1
ssS'CORDES WILLIAM R'
p90
(dp91
g3
I764
sg4
g5
sS'missing_bonus'
p92
I1
sS'missing_director_fees'
p93
I1
sg8
g5
sg9
F0.01288659793814433
sg10
I00
sg11
g5
sg12
S'bill.cordes@enron.com'
p94
sg14
I10
sg15
g5
sS'missing_from_messages'
p95
I0
sS'missing_total_stock_value'
p96
I0
sS'missing_exercised_stock_options'
p97
I0
sg19
g5
sS'missing_deferral_payments'
p98
I1
sg21
I58
sS'missing_to_messages'
p99
I0
sg23
g5
sg24
I12
sg25
g5
sS'missing_loan_advances'
p100
I1
sS'missing_expenses'
p101
I1
sg28
g5
sg29
g5
sg30
I1038185
sS'missing_other'
p102
I1
sS'missing_from_this_person_to_poi'
p103
I0
sg33
I0
sS'missing_from_poi_to_this_person'
p104
I0
sg35
I386335
sg36
g5
sS'missing_deferred_income'
p105
I1
sg38
g5
sS'missing_total_payments'
p106
I1
sg40
I651850
sS'missing_salary'
p107
I1
sS'missing_restricted_stock_deferred'
p108
I1
sS'missing_restricted_stock'
p109
I0
sS'missing_shared_receipt_with_poi'
p110
I0
sS'missing_long_term_incentive'
p111
I1
ssS'HANNON KEVIN P'
p112
(dp113
g3
I1045
sg4
g5
sS'missing_bonus'
p114
I0
sS'missing_director_fees'
p115
I1
sg8
I34039
sg9
F0.04921077065923862
sg10
I01
sg11
I1617011
sg12
S'kevin.hannon@enron.com'
p116
sg14
I32
sg15
I-3117011
sS'missing_from_messages'
p117
I0
sS'missing_total_stock_value'
p118
I0
sS'missing_exercised_stock_options'
p119
I0
sg19
g5
sS'missing_deferral_payments'
p120
I1
sg21
I1035
sS'missing_to_messages'
p121
I0
sg23
g5
sg24
I32
sg25
I11350
sS'missing_loan_advances'
p122
I1
sS'missing_expenses'
p123
I0
sg28
g5
sg29
I1500000
sg30
I6391065
sS'missing_other'
p124
I0
sS'missing_from_this_person_to_poi'
p125
I0
sg33
I21
sS'missing_from_poi_to_this_person'
p126
I0
sg35
I853064
sg36
I243293
sS'missing_deferred_income'
p127
I0
sg38
I288682
sS'missing_total_payments'
p128
I0
sg40
I5538001
sS'missing_salary'
p129
I0
sS'missing_restricted_stock_deferred'
p130
I1
sS'missing_restricted_stock'
p131
I0
sS'missing_shared_receipt_with_poi'
p132
I0
sS'missing_long_term_incentive'
p133
I0
ssS'MORDAUNT KRISTINA M'
p134
(dp135
g3
g5
sg4
g5
sS'missing_bonus'
p136
I0
sS'missing_director_fees'
p137
I1
sg8
I35018
sg9
g50
sg10
I00
sg11
g5
sg12
S'kristina.mordaunt@enron.com'
p138
sg14
g5
sg15
g5
sS'missing_from_messages'
p139
I1
sS'missing_total_stock_value'
p140
I0
sS'missing_exercised_stock_options'
p141
I1
sg19
g5
sS'missing_deferral_payments'
p142
I1
sg21
g5
sS'missing_to_messages'
p143
I1
sg23
g5
sg24
g5
sg25
I1411
sS'missing_loan_advances'
p144
I1
sS'missing_expenses'
p145
I0
sg28
g5
sg29
I325000
sg30
I208510
sS'missing_other'
p146
I0
sS'missing_from_this_person_to_poi'
p147
I1
sg33
g5
sS'missing_from_poi_to_this_person'
p148
I1
sg35
I208510
sg36
I267093
sS'missing_deferred_income'
p149
I1
sg38
I628522
sS'missing_total_payments'
p150
I0
sg40
g5
sS'missing_salary'
p151
I0
sS'missing_restricted_stock_deferred'
p152
I1
sS'missing_restricted_stock'
p153
I0
sS'missing_shared_receipt_with_poi'
p154
I1
sS'missing_long_term_incentive'
p155
I1
ssS'MEYER ROCKFORD G'
p156
(dp157
g3
I232
sg4
I1848227
sS'missing_bonus'
p158
I1
sS'missing_director_fees'
p159
I1
sg8
g5
sg9
F0.0
sg10
I00
sg11
g5
sg12
S'rockford.meyer@enron.com'
p160
sg14
I0
sg15
g5
sS'missing_from_messages'
p161
I0
sS'missing_total_stock_value'
p162
I0
sS'missing_exercised_stock_options'
p163
I0
sg19
g5
sS'missing_deferral_payments'
p164
I0
sg21
I22
sS'missing_to_messages'
p165
I0
sg23
g5
sg24
I28
sg25
g5
sS'missing_loan_advances'
p166
I1
sS'missing_expenses'
p167
I1
sg28
g5
sg29
g5
sg30
I955873
sS'missing_other'
p168
I1
sS'missing_from_this_person_to_poi'
p169
I0
sg33
I0
sS'missing_from_poi_to_this_person'
p170
I0
sg35
I462384
sg36
g5
sS'missing_deferred_income'
p171
I1
sg38
I1848227
sS'missing_total_payments'
p172
I0
sg40
I493489
sS'missing_salary'
p173
I1
sS'missing_restricted_stock_deferred'
p174
I1
sS'missing_restricted_stock'
p175
I0
sS'missing_shared_receipt_with_poi'
p176
I0
sS'missing_long_term_incentive'
p177
I1
ssS'MCMAHON JEFFREY'
p178
(dp179
g3
I2355
sg4
g5
sS'missing_bonus'
p180
I0
sS'missing_director_fees'
p181
I1
sg8
I137108
sg9
F0.03495630461922597
sg10
I00
sg11
I694862
sg12
S'jeffrey.mcmahon@enron.com'
p182
sg14
I58
sg15
g5
sS'missing_from_messages'
p183
I0
sS'missing_total_stock_value'
p184
I0
sS'missing_exercised_stock_options'
p185
I0
sg19
g5
sS'missing_deferral_payments'
p186
I1
sg21
I2228
sS'missing_to_messages'
p187
I0
sg23
g5
sg24
I48
sg25
I297353
sS'missing_loan_advances'
p188
I1
sS'missing_expenses'
p189
I0
sg28
g5
sg29
I2600000
sg30
I1662855
sS'missing_other'
p190
I0
sS'missing_from_this_person_to_poi'
p191
I0
sg33
I26
sS'missing_from_poi_to_this_person'
p192
I0
sg35
I558801
sg36
I370448
sS'missing_deferred_income'
p193
I1
sg38
I4099771
sS'missing_total_payments'
p194
I0
sg40
I1104054
sS'missing_salary'
p195
I0
sS'missing_restricted_stock_deferred'
p196
I1
sS'missing_restricted_stock'
p197
I0
sS'missing_shared_receipt_with_poi'
p198
I0
sS'missing_long_term_incentive'
p199
I0
ssS'HAEDICKE MARK E'
p200
(dp201
g3
I4009
sg4
I2157527
sS'missing_bonus'
p202
I0
sS'missing_director_fees'
p203
I1
sg8
I76169
sg9
F0.04050420168067227
sg10
I00
sg11
I983346
sg12
S'mark.haedicke@enron.com'
p204
sg14
I180
sg15
I-934484
sS'missing_from_messages'
p205
I0
sS'missing_total_stock_value'
p206
I0
sS'missing_exercised_stock_options'
p207
I0
sg19
I-329825
sS'missing_deferral_payments'
p208
I0
sg21
I1847
sS'missing_to_messages'
p209
I0
sg23
g5
sg24
I1941
sg25
I52382
sS'missing_loan_advances'
p210
I1
sS'missing_expenses'
p211
I0
sg28
g5
sg29
I1150000
sg30
I803094
sS'missing_other'
p212
I0
sS'missing_from_this_person_to_poi'
p213
I0
sg33
I61
sS'missing_from_poi_to_this_person'
p214
I0
sg35
I524169
sg36
I374125
sS'missing_deferred_income'
p215
I0
sg38
I3859065
sS'missing_total_payments'
p216
I0
sg40
I608750
sS'missing_salary'
p217
I0
sS'missing_restricted_stock_deferred'
p218
I0
sS'missing_restricted_stock'
p219
I0
sS'missing_shared_receipt_with_poi'
p220
I0
sS'missing_long_term_incentive'
p221
I0
ssS'PIPER GREGORY F'
p222
(dp223
g3
I1238
sg4
I1130036
sS'missing_bonus'
p224
I0
sS'missing_director_fees'
p225
I1
sg8
I43057
sg9
F0.07465753424657534
sg10
I00
sg11
g5
sg12
S'greg.piper@enron.com'
p226
sg14
I61
sg15
I-33333
sS'missing_from_messages'
p227
I0
sS'missing_total_stock_value'
p228
I0
sS'missing_exercised_stock_options'
p229
I0
sg19
I-409554
sS'missing_deferral_payments'
p230
I0
sg21
I742
sS'missing_to_messages'
p231
I0
sg23
g5
sg24
I222
sg25
I778
sS'missing_loan_advances'
p232
I1
sS'missing_expenses'
p233
I0
sg28
g5
sg29
I400000
sg30
I880290
sS'missing_other'
p234
I0
sS'missing_from_this_person_to_poi'
p235
I0
sg33
I48
sS'missing_from_poi_to_this_person'
p236
I0
sg35
I409554
sg36
I197091
sS'missing_deferred_income'
p237
I0
sg38
I1737629
sS'missing_total_payments'
p238
I0
sg40
I880290
sS'missing_salary'
p239
I0
sS'missing_restricted_stock_deferred'
p240
I0
sS'missing_restricted_stock'
p241
I0
sS'missing_shared_receipt_with_poi'
p242
I0
sS'missing_long_term_incentive'
p243
I1
ssS'HUMPHREY GENE E'
p244
(dp245
g3
I128
sg4
I2964506
sS'missing_bonus'
p246
I1
sS'missing_director_fees'
p247
I1
sg8
I4994
sg9
F0.18620689655172415
sg10
I00
sg11
g5
sg12
S'gene.humphrey@enron.com'
p248
sg14
I10
sg15
g5
sS'missing_from_messages'
p249
I0
sS'missing_total_stock_value'
p250
I0
sS'missing_exercised_stock_options'
p251
I0
sg19
g5
sS'missing_deferral_payments'
p252
I0
sg21
I119
sS'missing_to_messages'
p253
I0
sg23
g5
sg24
I17
sg25
g5
sS'missing_loan_advances'
p254
I1
sS'missing_expenses'
p255
I0
sg28
g5
sg29
g5
sg30
I2282768
sS'missing_other'
p256
I1
sS'missing_from_this_person_to_poi'
p257
I0
sg33
I17
sS'missing_from_poi_to_this_person'
p258
I0
sg35
g5
sg36
I130724
sS'missing_deferred_income'
p259
I1
sg38
I3100224
sS'missing_total_payments'
p260
I0
sg40
I2282768
sS'missing_salary'
p261
I0
sS'missing_restricted_stock_deferred'
p262
I1
sS'missing_restricted_stock'
p263
I1
sS'missing_shared_receipt_with_poi'
p264
I0
sS'missing_long_term_incentive'
p265
I1
ssS'NOLES JAMES L'
p266
(dp267
g3
g5
sg4
I774401
sS'missing_bonus'
p268
I1
sS'missing_director_fees'
p269
I1
sg8
g5
sg9
g50
sg10
I00
sg11
g5
sg12
g5
sg14
g5
sg15
g5
sS'missing_from_messages'
p270
I1
sS'missing_total_stock_value'
p271
I0
sS'missing_exercised_stock_options'
p272
I1
sg19
I-94556
sS'missing_deferral_payments'
p273
I0
sg21
g5
sS'missing_to_messages'
p274
I1
sg23
g5
sg24
g5
sg25
g5
sS'missing_loan_advances'
p275
I1
sS'missing_expenses'
p276
I1
sg28
g5
sg29
g5
sg30
I368705
sS'missing_other'
p277
I1
sS'missing_from_this_person_to_poi'
p278
I1
sg33
g5
sS'missing_from_poi_to_this_person'
p279
I1
sg35
I463261
sg36
g5
sS'missing_deferred_income'
p280
I1
sg38
I774401
sS'missing_total_payments'
p281
I0
sg40
g5
sS'missing_salary'
p282
I1
sS'missing_restricted_stock_deferred'
p283
I0
sS'missing_restricted_stock'
p284
I0
sS'missing_shared_receipt_with_poi'
p285
I1
sS'missing_long_term_incentive'
p286
I1
ssS'BLACHMAN JEREMY M'
p287
(dp288
g3
I2475
sg4
g5
sS'missing_bonus'
p289
I0
sS'missing_director_fees'
p290
I1
sg8
I84208
sg9
F0.010847730012053034
sg10
I00
sg11
I831809
sg12
S'jeremy.blachman@enron.com'
p291
sg14
I25
sg15
g5
sS'missing_from_messages'
p292
I0
sS'missing_total_stock_value'
p293
I0
sS'missing_exercised_stock_options'
p294
I0
sg19
g5
sS'missing_deferral_payments'
p295
I1
sg21
I2326
sS'missing_to_messages'
p296
I0
sg23
g5
sg24
I14
sg25
I272
sS'missing_loan_advances'
p297
I1
sS'missing_expenses'
p298
I0
sg28
g5
sg29
I850000
sg30
I954354
sS'missing_other'
p299
I0
sS'missing_from_this_person_to_poi'
p300
I0
sg33
I2
sS'missing_from_poi_to_this_person'
p301
I0
sg35
I189041
sg36
I248546
sS'missing_deferred_income'
p302
I1
sg38
I2014835
sS'missing_total_payments'
p303
I0
sg40
I765313
sS'missing_salary'
p304
I0
sS'missing_restricted_stock_deferred'
p305
I1
sS'missing_restricted_stock'
p306
I0
sS'missing_shared_receipt_with_poi'
p307
I0
sS'missing_long_term_incentive'
p308
I0
ssS'SUNDE MARTIN'
p309
(dp310
g3
I2647
sg4
g5
sS'missing_bonus'
p311
I0
sS'missing_director_fees'
p312
I1
sg8
g5
sg9
F0.0186219739292365
sg10
I00
sg11
I476451
sg12
S'marty.sunde@enron.com'
p313
sg14
I37
sg15
g5
sS'missing_from_messages'
p314
I0
sS'missing_total_stock_value'
p315
I0
sS'missing_exercised_stock_options'
p316
I1
sg19
g5
sS'missing_deferral_payments'
p317
I1
sg21
I2565
sS'missing_to_messages'
p318
I0
sg23
g5
sg24
I38
sg25
I111122
sS'missing_loan_advances'
p319
I1
sS'missing_expenses'
p320
I1
sg28
g5
sg29
I700000
sg30
I698920
sS'missing_other'
p321
I0
sS'missing_from_this_person_to_poi'
p322
I0
sg33
I13
sS'missing_from_poi_to_this_person'
p323
I0
sg35
I698920
sg36
I257486
sS'missing_deferred_income'
p324
I1
sg38
I1545059
sS'missing_total_payments'
p325
I0
sg40
g5
sS'missing_salary'
p326
I0
sS'missing_restricted_stock_deferred'
p327
I1
sS'missing_restricted_stock'
p328
I0
sS'missing_shared_receipt_with_poi'
p329
I0
sS'missing_long_term_incentive'
p330
I0
ssS'GIBBS DANA R'
p331
(dp332
g3
I169
sg4
I504610
sS'missing_bonus'
p333
I1
sS'missing_director_fees'
p334
I1
sg8
g5
sg9
F0.0
sg10
I00
sg11
I461912
sg12
S'dana.gibbs@enron.com'
p335
sg14
I0
sg15
g5
sS'missing_from_messages'
p336
I0
sS'missing_total_stock_value'
p337
I0
sS'missing_exercised_stock_options'
p338
I0
sg19
g5
sS'missing_deferral_payments'
p339
I0
sg21
I23
sS'missing_to_messages'
p340
I0
sg23
g5
sg24
I12
sg25
g5
sS'missing_loan_advances'
p341
I1
sS'missing_expenses'
p342
I1
sg28
g5
sg29
g5
sg30
I2218275
sS'missing_other'
p343
I1
sS'missing_from_this_person_to_poi'
p344
I0
sg33
I0
sS'missing_from_poi_to_this_person'
p345
I0
sg35
g5
sg36
g5
sS'missing_deferred_income'
p346
I1
sg38
I966522
sS'missing_total_payments'
p347
I0
sg40
I2218275
sS'missing_salary'
p348
I1
sS'missing_restricted_stock_deferred'
p349
I1
sS'missing_restricted_stock'
p350
I1
sS'missing_shared_receipt_with_poi'
p351
I0
sS'missing_long_term_incentive'
p352
I0
ssS'LOWRY CHARLES P'
p353
(dp354
g3
g5
sg4
g5
sS'missing_bonus'
p355
I1
sS'missing_director_fees'
p356
I1
sg8
g5
sg9
g50
sg10
I00
sg11
g5
sg12
g5
sg14
g5
sg15
g5
sS'missing_from_messages'
p357
I1
sS'missing_total_stock_value'
p358
I0
sS'missing_exercised_stock_options'
p359
I0
sg19
I-153686
sS'missing_deferral_payments'
p360
I1
sg21
g5
sS'missing_to_messages'
p361
I1
sg23
g5
sg24
g5
sg25
g5
sS'missing_loan_advances'
p362
I1
sS'missing_expenses'
p363
I1
sg28
g5
sg29
g5
sg30
I372205
sS'missing_other'
p364
I1
sS'missing_from_this_person_to_poi'
p365
I1
sg33
g5
sS'missing_from_poi_to_this_person'
p366
I1
sg35
I153686
sg36
g5
sS'missing_deferred_income'
p367
I1
sg38
g5
sS'missing_total_payments'
p368
I1
sg40
I372205
sS'missing_salary'
p369
I1
sS'missing_restricted_stock_deferred'
p370
I0
sS'missing_restricted_stock'
p371
I0
sS'missing_shared_receipt_with_poi'
p372
I1
sS'missing_long_term_incentive'
p373
I1
ssS'COLWELL WESLEY'
p374
(dp375
g3
I1758
sg4
I27610
sS'missing_bonus'
p376
I0
sS'missing_director_fees'
p377
I1
sg8
I16514
sg9
F0.13959955506117908
sg10
I01
sg11
g5
sg12
S'wes.colwell@enron.com'
p378
sg14
I240
sg15
I-144062
sS'missing_from_messages'
p379
I0
sS'missing_total_stock_value'
p380
I0
sS'missing_exercised_stock_options'
p381
I1
sg19
g5
sS'missing_deferral_payments'
p382
I0
sg21
I1132
sS'missing_to_messages'
p383
I0
sg23
g5
sg24
I40
sg25
I101740
sS'missing_loan_advances'
p384
I1
sS'missing_expenses'
p385
I0
sg28
g5
sg29
I1200000
sg30
I698242
sS'missing_other'
p386
I0
sS'missing_from_this_person_to_poi'
p387
I0
sg33
I11
sS'missing_from_poi_to_this_person'
p388
I0
sg35
I698242
sg36
I288542
sS'missing_deferred_income'
p389
I0
sg38
I1490344
sS'missing_total_payments'
p390
I0
sg40
g5
sS'missing_salary'
p391
I0
sS'missing_restricted_stock_deferred'
p392
I1
sS'missing_restricted_stock'
p393
I0
sS'missing_shared_receipt_with_poi'
p394
I0
sS'missing_long_term_incentive'
p395
I1
ssS'MULLER MARK S'
p396
(dp397
g3
I136
sg4
I842924
sS'missing_bonus'
p398
I0
sS'missing_director_fees'
p399
I1
sg8
g5
sg9
F0.07894736842105263
sg10
I00
sg11
I1725545
sg12
S's..muller@enron.com'
p400
sg14
I12
sg15
I-719000
sS'missing_from_messages'
p401
I0
sS'missing_total_stock_value'
p402
I0
sS'missing_exercised_stock_options'
p403
I0
sg19
g5
sS'missing_deferral_payments'
p404
I0
sg21
I114
sS'missing_to_messages'
p405
I0
sg23
g5
sg24
I16
sg25
I947
sS'missing_loan_advances'
p406
I1
sS'missing_expenses'
p407
I1
sg28
g5
sg29
I1100000
sg30
I1416848
sS'missing_other'
p408
I0
sS'missing_from_this_person_to_poi'
p409
I0
sg33
I0
sS'missing_from_poi_to_this_person'
p410
I0
sg35
I360528
sg36
I251654
sS'missing_deferred_income'
p411
I0
sg38
I3202070
sS'missing_total_payments'
p412
I0
sg40
I1056320
sS'missing_salary'
p413
I0
sS'missing_restricted_stock_deferred'
p414
I1
sS'missing_restricted_stock'
p415
I0
sS'missing_shared_receipt_with_poi'
p416
I0
sS'missing_long_term_incentive'
p417
I0
ssS'JACKSON CHARLENE R'
p418
(dp419
g3
I258
sg4
g5
sS'missing_bonus'
p420
I0
sS'missing_director_fees'
p421
I1
sg8
I10181
sg9
F0.14012738853503184
sg10
I00
sg11
g5
sg12
S'charlene.jackson@enron.com'
p422
sg14
I25
sg15
g5
sS'missing_from_messages'
p423
I0
sS'missing_total_stock_value'
p424
I0
sS'missing_exercised_stock_options'
p425
I0
sg19
g5
sS'missing_deferral_payments'
p426
I1
sg21
I117
sS'missing_to_messages'
p427
I0
sg23
g5
sg24
I56
sg25
I2435
sS'missing_loan_advances'
p428
I1
sS'missing_expenses'
p429
I0
sg28
g5
sg29
I250000
sg30
I725735
sS'missing_other'
p430
I0
sS'missing_from_this_person_to_poi'
p431
I0
sg33
I19
sS'missing_from_poi_to_this_person'
p432
I0
sg35
I540672
sg36
I288558
sS'missing_deferred_income'
p433
I1
sg38
I551174
sS'missing_total_payments'
p434
I0
sg40
I185063
sS'missing_salary'
p435
I0
sS'missing_restricted_stock_deferred'
p436
I1
sS'missing_restricted_stock'
p437
I0
sS'missing_shared_receipt_with_poi'
p438
I0
sS'missing_long_term_incentive'
p439
I1
ssS'WESTFAHL RICHARD K'
p440
(dp441
g3
g5
sg4
g5
sS'missing_bonus'
p442
I1
sS'missing_director_fees'
p443
I1
sg8
I51870
sg9
g50
sg10
I00
sg11
I256191
sg12
S'dick.westfahl@enron.com'
p444
sg14
g5
sg15
I-10800
sS'missing_from_messages'
p445
I1
sS'missing_total_stock_value'
p446
I0
sS'missing_exercised_stock_options'
p447
I1
sg19
g5
sS'missing_deferral_payments'
p448
I1
sg21
g5
sS'missing_to_messages'
p449
I1
sg23
g5
sg24
g5
sg25
I401130
sS'missing_loan_advances'
p450
I1
sS'missing_expenses'
p451
I0
sg28
g5
sg29
g5
sg30
I384930
sS'missing_other'
p452
I0
sS'missing_from_this_person_to_poi'
p453
I1
sg33
g5
sS'missing_from_poi_to_this_person'
p454
I1
sg35
I384930
sg36
I63744
sS'missing_deferred_income'
p455
I0
sg38
I762135
sS'missing_total_payments'
p456
I0
sg40
g5
sS'missing_salary'
p457
I0
sS'missing_restricted_stock_deferred'
p458
I1
sS'missing_restricted_stock'
p459
I0
sS'missing_shared_receipt_with_poi'
p460
I1
sS'missing_long_term_incentive'
p461
I0
ssS'WALTERS GARETH W'
p462
(dp463
g3
g5
sg4
I53625
sS'missing_bonus'
p464
I1
sS'missing_director_fees'
p465
I1
sg8
I33785
sg9
g50
sg10
I00
sg11
g5
sg12
g5
sg14
g5
sg15
g5
sS'missing_from_messages'
p466
I1
sS'missing_total_stock_value'
p467
I0
sS'missing_exercised_stock_options'
p468
I0
sg19
g5
sS'missing_deferral_payments'
p469
I0
sg21
g5
sS'missing_to_messages'
p470
I1
sg23
g5
sg24
g5
sg25
g5
sS'missing_loan_advances'
p471
I1
sS'missing_expenses'
p472
I0
sg28
g5
sg29
g5
sg30
I1030329
sS'missing_other'
p473
I1
sS'missing_from_this_person_to_poi'
p474
I1
sg33
g5
sS'missing_from_poi_to_this_person'
p475
I1
sg35
g5
sg36
g5
sS'missing_deferred_income'
p476
I1
sg38
I87410
sS'missing_total_payments'
p477
I0
sg40
I1030329
sS'missing_salary'
p478
I1
sS'missing_restricted_stock_deferred'
p479
I1
sS'missing_restricted_stock'
p480
I1
sS'missing_shared_receipt_with_poi'
p481
I1
sS'missing_long_term_incentive'
p482
I1
ssS'WALLS JR ROBERT H'
p483
(dp484
g3
I671
sg4
g5
sS'missing_bonus'
p485
I0
sS'missing_director_fees'
p486
I1
sg8
I50936
sg9
F0.0208078335373317
sg10
I00
sg11
I540751
sg12
S'rob.walls@enron.com'
p487
sg14
I17
sg15
g5
sS'missing_from_messages'
p488
I0
sS'missing_total_stock_value'
p489
I0
sS'missing_exercised_stock_options'
p490
I0
sg19
g5
sS'missing_deferral_payments'
p491
I1
sg21
I215
sS'missing_to_messages'
p492
I0
sg23
g5
sg24
I146
sg25
I2
sS'missing_loan_advances'
p493
I1
sS'missing_expenses'
p494
I0
sg28
g5
sg29
I850000
sg30
I5898997
sS'missing_other'
p495
I0
sS'missing_from_this_person_to_poi'
p496
I0
sg33
I0
sS'missing_from_poi_to_this_person'
p497
I0
sg35
I1552453
sg36
I357091
sS'missing_deferred_income'
p498
I1
sg38
I1798780
sS'missing_total_payments'
p499
I0
sg40
I4346544
sS'missing_salary'
p500
I0
sS'missing_restricted_stock_deferred'
p501
I1
sS'missing_restricted_stock'
p502
I0
sS'missing_shared_receipt_with_poi'
p503
I0
sS'missing_long_term_incentive'
p504
I0
ssS'KITCHEN LOUISE'
p505
(dp506
g3
I8305
sg4
g5
sS'missing_bonus'
p507
I0
sS'missing_director_fees'
p508
I1
sg8
I5774
sg9
F0.044353633011063494
sg10
I00
sg11
g5
sg12
S'louise.kitchen@enron.com'
p509
sg14
I251
sg15
g5
sS'missing_from_messages'
p510
I0
sS'missing_total_stock_value'
p511
I0
sS'missing_exercised_stock_options'
p512
I0
sg19
g5
sS'missing_deferral_payments'
p513
I1
sg21
I3669
sS'missing_to_messages'
p514
I0
sg23
g5
sg24
I1728
sg25
I93925
sS'missing_loan_advances'
p515
I1
sS'missing_expenses'
p516
I0
sg28
g5
sg29
I3100000
sg30
I547143
sS'missing_other'
p517
I0
sS'missing_from_this_person_to_poi'
p518
I0
sg33
I194
sS'missing_from_poi_to_this_person'
p519
I0
sg35
I466101
sg36
I271442
sS'missing_deferred_income'
p520
I1
sg38
I3471141
sS'missing_total_payments'
p521
I0
sg40
I81042
sS'missing_salary'
p522
I0
sS'missing_restricted_stock_deferred'
p523
I1
sS'missing_restricted_stock'
p524
I0
sS'missing_shared_receipt_with_poi'
p525
I0
sS'missing_long_term_incentive'
p526
I1
ssS'CHAN RONNIE'
p527
(dp528
g3
g5
sg4
g5
sS'missing_bonus'
p529
I1
sS'missing_director_fees'
p530
I0
sg8
g5
sg9
g50
sg10
I00
sg11
g5
sg12
g5
sg14
g5
sg15
I-98784
sS'missing_from_messages'
p531
I1
sS'missing_total_stock_value'
p532
I1
sS'missing_exercised_stock_options'
p533
I1
sg19
I-32460
sS'missing_deferral_payments'
p534
I1
sg21
g5
sS'missing_to_messages'
p535
I1
sg23
g5
sg24
g5
sg25
g5
sS'missing_loan_advances'
p536
I1
sS'missing_expenses'
p537
I1
sg28
I98784
sg29
g5
sg30
g5
sS'missing_other'
p538
I1
sS'missing_from_this_person_to_poi'
p539
I1
sg33
g5
sS'missing_from_poi_to_this_person'
p540
I1
sg35
I32460
sg36
g5
sS'missing_deferred_income'
p541
I0
sg38
g5
sS'missing_total_payments'
p542
I1
sg40
g5
sS'missing_salary'
p543
I1
sS'missing_restricted_stock_deferred'
p544
I0
sS'missing_restricted_stock'
p545
I0
sS'missing_shared_receipt_with_poi'
p546
I1
sS'missing_long_term_incentive'
p547
I1
ssS'BELFER ROBERT'
p548
(dp549
g3
g5
sg4
I-102500
sS'missing_bonus'
p550
I1
sS'missing_director_fees'
p551
I0
sg8
g5
sg9
g50
sg10
I00
sg11
g5
sg12
g5
sg14
g5
sg15
g5
sS'missing_from_messages'
p552
I1
sS'missing_total_stock_value'
p553
I0
sS'missing_exercised_stock_options'
p554
I0
sg19
I44093
sS'missing_deferral_payments'
p555
I0
sg21
g5
sS'missing_to_messages'
p556
I1
sg23
g5
sg24
g5
sg25
g5
sS'missing_loan_advances'
p557
I1
sS'missing_expenses'
p558
I1
sg28
I3285
sg29
g5
sg30
I-44093
sS'missing_other'
p559
I1
sS'missing_from_this_person_to_poi'
p560
I1
sg33
g5
sS'missing_from_poi_to_this_person'
p561
I1
sg35
g5
sg36
g5
sS'missing_deferred_income'
p562
I1
sg38
I102500
sS'missing_total_payments'
p563
I0
sg40
I3285
sS'missing_salary'
p564
I1
sS'missing_restricted_stock_deferred'
p565
I0
sS'missing_restricted_stock'
p566
I1
sS'missing_shared_receipt_with_poi'
p567
I1
sS'missing_long_term_incentive'
p568
I1
ssS'SHANKMAN JEFFREY A'
p569
(dp570
g3
I3221
sg4
g5
sS'missing_bonus'
p571
I0
sS'missing_director_fees'
p572
I1
sg8
I178979
sg9
F0.029989833954591663
sg10
I00
sg11
I554422
sg12
S'jeffrey.shankman@enron.com'
p573
sg14
I94
sg15
g5
sS'missing_from_messages'
p574
I0
sS'missing_total_stock_value'
p575
I0
sS'missing_exercised_stock_options'
p576
I0
sg19
g5
sS'missing_deferral_payments'
p577
I1
sg21
I1730
sS'missing_to_messages'
p578
I0
sg23
g5
sg24
I2681
sg25
I1191
sS'missing_loan_advances'
p579
I1
sS'missing_expenses'
p580
I0
sg28
g5
sg29
I2000000
sg30
I2072035
sS'missing_other'
p581
I0
sS'missing_from_this_person_to_poi'
p582
I0
sg33
I83
sS'missing_from_poi_to_this_person'
p583
I0
sg35
I630137
sg36
I304110
sS'missing_deferred_income'
p584
I1
sg38
I3038702
sS'missing_total_payments'
p585
I0
sg40
I1441898
sS'missing_salary'
p586
I0
sS'missing_restricted_stock_deferred'
p587
I1
sS'missing_restricted_stock'
p588
I0
sS'missing_shared_receipt_with_poi'
p589
I0
sS'missing_long_term_incentive'
p590
I0
ssS'WODRASKA JOHN'
p591
(dp592
g3
g5
sg4
g5
sS'missing_bonus'
p593
I1
sS'missing_director_fees'
p594
I1
sg8
g5
sg9
g50
sg10
I00
sg11
g5
sg12
S'john.wodraska@enron.com'
p595
sg14
g5
sg15
g5
sS'missing_from_messages'
p596
I1
sS'missing_total_stock_value'
p597
I1
sS'missing_exercised_stock_options'
p598
I1
sg19
g5
sS'missing_deferral_payments'
p599
I1
sg21
g5
sS'missing_to_messages'
p600
I1
sg23
g5
sg24
g5
sg25
I189583
sS'missing_loan_advances'
p601
I1
sS'missing_expenses'
p602
I1
sg28
g5
sg29
g5
sg30
g5
sS'missing_other'
p603
I0
sS'missing_from_this_person_to_poi'
p604
I1
sg33
g5
sS'missing_from_poi_to_this_person'
p605
I1
sg35
g5
sg36
g5
sS'missing_deferred_income'
p606
I1
sg38
I189583
sS'missing_total_payments'
p607
I0
sg40
g5
sS'missing_salary'
p608
I1
sS'missing_restricted_stock_deferred'
p609
I1
sS'missing_restricted_stock'
p610
I1
sS'missing_shared_receipt_with_poi'
p611
I1
sS'missing_long_term_incentive'
p612
I1
ssS'BERGSIEKER RICHARD P'
p613
(dp614
g3
I383
sg4
g5
sS'missing_bonus'
p615
I0
sS'missing_director_fees'
p616
I1
sg8
I59175
sg9
F0.00904977375565611
sg10
I00
sg11
I180250
sg12
S'rick.bergsieker@enron.com'
p617
sg14
I4
sg15
I-485813
sS'missing_from_messages'
p618
I0
sS'missing_total_stock_value'
p619
I0
sS'missing_exercised_stock_options'
p620
I1
sg19
g5
sS'missing_deferral_payments'
p621
I1
sg21
I233
sS'missing_to_messages'
p622
I0
sg23
g5
sg24
I59
sg25
I427316
sS'missing_loan_advances'
p623
I1
sS'missing_expenses'
p624
I0
sg28
g5
sg29
I250000
sg30
I659249
sS'missing_other'
p625
I0
sS'missing_from_this_person_to_poi'
p626
I0
sg33
I0
sS'missing_from_poi_to_this_person'
p627
I0
sg35
I659249
sg36
I187922
sS'missing_deferred_income'
p628
I0
sg38
I618850
sS'missing_total_payments'
p629
I0
sg40
g5
sS'missing_salary'
p630
I0
sS'missing_restricted_stock_deferred'
p631
I1
sS'missing_restricted_stock'
p632
I0
sS'missing_shared_receipt_with_poi'
p633
I0
sS'missing_long_term_incentive'
p634
I0
ssS'URQUHART JOHN A'
p635
(dp636
g3
g5
sg4
g5
sS'missing_bonus'
p637
I1
sS'missing_director_fees'
p638
I0
sg8
I228656
sg9
g50
sg10
I00
sg11
g5
sg12
g5
sg14
g5
sg15
I-36666
sS'missing_from_messages'
p639
I1
sS'missing_total_stock_value'
p640
I1
sS'missing_exercised_stock_options'
p641
I1
sg19
g5
sS'missing_deferral_payments'
p642
I1
sg21
g5
sS'missing_to_messages'
p643
I1
sg23
g5
sg24
g5
sg25
g5
sS'missing_loan_advances'
p644
I1
sS'missing_expenses'
p645
I0
sg28
I36666
sg29
g5
sg30
g5
sS'missing_other'
p646
I1
sS'missing_from_this_person_to_poi'
p647
I1
sg33
g5
sS'missing_from_poi_to_this_person'
p648
I1
sg35
g5
sg36
g5
sS'missing_deferred_income'
p649
I0
sg38
I228656
sS'missing_total_payments'
p650
I0
sg40
g5
sS'missing_salary'
p651
I1
sS'missing_restricted_stock_deferred'
p652
I1
sS'missing_restricted_stock'
p653
I1
sS'missing_shared_receipt_with_poi'
p654
I1
sS'missing_long_term_incentive'
p655
I1
ssS'BIBI PHILIPPE A'
p656
(dp657
g3
I1607
sg4
g5
sS'missing_bonus'
p658
I0
sS'missing_director_fees'
p659
I1
sg8
I38559
sg9
F0.018822100789313904
sg10
I00
sg11
I369721
sg12
S'philippe.bibi@enron.com'
p660
sg14
I23
sg15
g5
sS'missing_from_messages'
p661
I0
sS'missing_total_stock_value'
p662
I0
sS'missing_exercised_stock_options'
p663
I0
sg19
g5
sS'missing_deferral_payments'
p664
I1
sg21
I1336
sS'missing_to_messages'
p665
I0
sg23
g5
sg24
I40
sg25
I425688
sS'missing_loan_advances'
p666
I1
sS'missing_expenses'
p667
I0
sg28
g5
sg29
I1000000
sg30
I1843816
sS'missing_other'
p668
I0
sS'missing_from_this_person_to_poi'
p669
I0
sg33
I8
sS'missing_from_poi_to_this_person'
p670
I0
sg35
I378082
sg36
I213625
sS'missing_deferred_income'
p671
I1
sg38
I2047593
sS'missing_total_payments'
p672
I0
sg40
I1465734
sS'missing_salary'
p673
I0
sS'missing_restricted_stock_deferred'
p674
I1
sS'missing_restricted_stock'
p675
I0
sS'missing_shared_receipt_with_poi'
p676
I0
sS'missing_long_term_incentive'
p677
I0
ssS'RIEKER PAULA H'
p678
(dp679
g3
I1328
sg4
I214678
sS'missing_bonus'
p680
I0
sS'missing_director_fees'
p681
I1
sg8
I33271
sg9
F0.058865248226950356
sg10
I01
sg11
g5
sg12
S'paula.rieker@enron.com'
p682
sg14
I35
sg15
I-100000
sS'missing_from_messages'
p683
I0
sS'missing_total_stock_value'
p684
I0
sS'missing_exercised_stock_options'
p685
I0
sg19
g5
sS'missing_deferral_payments'
p686
I0
sg21
I1258
sS'missing_to_messages'
p687
I0
sg23
g5
sg24
I82
sg25
I1950
sS'missing_loan_advances'
p688
I1
sS'missing_expenses'
p689
I0
sg28
g5
sg29
I700000
sg30
I1918887
sS'missing_other'
p690
I0
sS'missing_from_this_person_to_poi'
p691
I0
sg33
I48
sS'missing_from_poi_to_this_person'
p692
I0
sg35
I283649
sg36
I249201
sS'missing_deferred_income'
p693
I0
sg38
I1099100
sS'missing_total_payments'
p694
I0
sg40
I1635238
sS'missing_salary'
p695
I0
sS'missing_restricted_stock_deferred'
p696
I1
sS'missing_restricted_stock'
p697
I0
sS'missing_shared_receipt_with_poi'
p698
I0
sS'missing_long_term_incentive'
p699
I1
ssS'WHALEY DAVID A'
p700
(dp701
g3
g5
sg4
g5
sS'missing_bonus'
p702
I1
sS'missing_director_fees'
p703
I1
sg8
g5
sg9
g50
sg10
I00
sg11
g5
sg12
g5
sg14
g5
sg15
g5
sS'missing_from_messages'
p704
I1
sS'missing_total_stock_value'
p705
I0
sS'missing_exercised_stock_options'
p706
I0
sg19
g5
sS'missing_deferral_payments'
p707
I1
sg21
g5
sS'missing_to_messages'
p708
I1
sg23
g5
sg24
g5
sg25
g5
sS'missing_loan_advances'
p709
I1
sS'missing_expenses'
p710
I1
sg28
g5
sg29
g5
sg30
I98718
sS'missing_other'
p711
I1
sS'missing_from_this_person_to_poi'
p712
I1
sg33
g5
sS'missing_from_poi_to_this_person'
p713
I1
sg35
g5
sg36
g5
sS'missing_deferred_income'
p714
I1
sg38
g5
sS'missing_total_payments'
p715
I1
sg40
I98718
sS'missing_salary'
p716
I1
sS'missing_restricted_stock_deferred'
p717
I1
sS'missing_restricted_stock'
p718
I1
sS'missing_shared_receipt_with_poi'
p719
I1
sS'missing_long_term_incentive'
p720
I1
ssS'BECK SALLY W'
p721
(dp722
g3
I7315
sg4
g5
sS'missing_bonus'
p723
I0
sS'missing_director_fees'
p724
I1
sg8
I37172
sg9
F0.0454623434551381
sg10
I00
sg11
g5
sg12
S'sally.beck@enron.com'
p725
sg14
I144
sg15
g5
sS'missing_from_messages'
p726
I0
sS'missing_total_stock_value'
p727
I0
sS'missing_exercised_stock_options'
p728
I1
sg19
g5
sS'missing_deferral_payments'
p729
I1
sg21
I2639
sS'missing_to_messages'
p730
I0
sg23
g5
sg24
I4343
sg25
I566
sS'missing_loan_advances'
p731
I1
sS'missing_expenses'
p732
I0
sg28
g5
sg29
I700000
sg30
I126027
sS'missing_other'
p733
I0
sS'missing_from_this_person_to_poi'
p734
I0
sg33
I386
sS'missing_from_poi_to_this_person'
p735
I0
sg35
I126027
sg36
I231330
sS'missing_deferred_income'
p736
I1
sg38
I969068
sS'missing_total_payments'
p737
I0
sg40
g5
sS'missing_salary'
p738
I0
sS'missing_restricted_stock_deferred'
p739
I1
sS'missing_restricted_stock'
p740
I0
sS'missing_shared_receipt_with_poi'
p741
I0
sS'missing_long_term_incentive'
p742
I1
ssS'HAUG DAVID L'
p743
(dp744
g3
I573
sg4
g5
sS'missing_bonus'
p745
I1
sS'missing_director_fees'
p746
I1
sg8
I475
sg9
F0.018581081081081082
sg10
I00
sg11
g5
sg12
S'david.haug@enron.com'
p747
sg14
I4
sg15
g5
sS'missing_from_messages'
p748
I0
sS'missing_total_stock_value'
p749
I0
sS'missing_exercised_stock_options'
p750
I1
sg19
g5
sS'missing_deferral_payments'
p751
I1
sg21
I471
sS'missing_to_messages'
p752
I0
sg23
g5
sg24
I19
sg25
g5
sS'missing_loan_advances'
p753
I1
sS'missing_expenses'
p754
I0
sg28
g5
sg29
g5
sg30
I2217299
sS'missing_other'
p755
I1
sS'missing_from_this_person_to_poi'
p756
I0
sg33
I7
sS'missing_from_poi_to_this_person'
p757
I0
sg35
I2217299
sg36
g5
sS'missing_deferred_income'
p758
I1
sg38
I475
sS'missing_total_payments'
p759
I0
sg40
g5
sS'missing_salary'
p760
I1
sS'missing_restricted_stock_deferred'
p761
I1
sS'missing_restricted_stock'
p762
I0
sS'missing_shared_receipt_with_poi'
p763
I0
sS'missing_long_term_incentive'
p764
I1
ssS'ECHOLS JOHN B'
p765
(dp766
g3
g5
sg4
g5
sS'missing_bonus'
p767
I0
sS'missing_director_fees'
p768
I1
sg8
I21530
sg9
g50
sg10
I00
sg11
I2234774
sg12
S'john.echols@enron.com'
p769
sg14
g5
sg15
g5
sS'missing_from_messages'
p770
I1
sS'missing_total_stock_value'
p771
I0
sS'missing_exercised_stock_options'
p772
I0
sg19
g5
sS'missing_deferral_payments'
p773
I1
sg21
g5
sS'missing_to_messages'
p774
I1
sg23
g5
sg24
g5
sg25
I53775
sS'missing_loan_advances'
p775
I1
sS'missing_expenses'
p776
I0
sg28
g5
sg29
I200000
sg30
I1008941
sS'missing_other'
p777
I0
sS'missing_from_this_person_to_poi'
p778
I1
sg33
g5
sS'missing_from_poi_to_this_person'
p779
I1
sg35
I407503
sg36
I182245
sS'missing_deferred_income'
p780
I1
sg38
I2692324
sS'missing_total_payments'
p781
I0
sg40
I601438
sS'missing_salary'
p782
I0
sS'missing_restricted_stock_deferred'
p783
I1
sS'missing_restricted_stock'
p784
I0
sS'missing_shared_receipt_with_poi'
p785
I1
sS'missing_long_term_incentive'
p786
I0
ssS'MENDELSOHN JOHN'
p787
(dp788
g3
g5
sg4
g5
sS'missing_bonus'
p789
I1
sS'missing_director_fees'
p790
I0
sg8
I148
sg9
g50
sg10
I00
sg11
g5
sg12
g5
sg14
g5
sg15
I-103750
sS'missing_from_messages'
p791
I1
sS'missing_total_stock_value'
p792
I1
sS'missing_exercised_stock_options'
p793
I1
sg19
g5
sS'missing_deferral_payments'
p794
I1
sg21
g5
sS'missing_to_messages'
p795
I1
sg23
g5
sg24
g5
sg25
g5
sS'missing_loan_advances'
p796
I1
sS'missing_expenses'
p797
I0
sg28
I103750
sg29
g5
sg30
g5
sS'missing_other'
p798
I1
sS'missing_from_this_person_to_poi'
p799
I1
sg33
g5
sS'missing_from_poi_to_this_person'
p800
I1
sg35
g5
sg36
g5
sS'missing_deferred_income'
p801
I0
sg38
I148
sS'missing_total_payments'
p802
I0
sg40
g5
sS'missing_salary'
p803
I1
sS'missing_restricted_stock_deferred'
p804
I1
sS'missing_restricted_stock'
p805
I1
sS'missing_shared_receipt_with_poi'
p806
I1
sS'missing_long_term_incentive'
p807
I1
ssS'HICKERSON GARY J'
p808
(dp809
g3
I1320
sg4
g5
sS'missing_bonus'
p810
I0
sS'missing_director_fees'
p811
I1
sg8
I98849
sg9
F0.030438010393466965
sg10
I00
sg11
I69223
sg12
S'gary.hickerson@enron.com'
p812
sg14
I40
sg15
g5
sS'missing_from_messages'
p813
I0
sS'missing_total_stock_value'
p814
I0
sS'missing_exercised_stock_options'
p815
I1
sg19
g5
sS'missing_deferral_payments'
p816
I1
sg21
I900
sS'missing_to_messages'
p817
I0
sg23
g5
sg24
I27
sg25
I1936
sS'missing_loan_advances'
p818
I1
sS'missing_expenses'
p819
I0
sg28
g5
sg29
I1700000
sg30
I441096
sS'missing_other'
p820
I0
sS'missing_from_this_person_to_poi'
p821
I0
sg33
I1
sS'missing_from_poi_to_this_person'
p822
I0
sg35
I441096
sg36
I211788
sS'missing_deferred_income'
p823
I1
sg38
I2081796
sS'missing_total_payments'
p824
I0
sg40
g5
sS'missing_salary'
p825
I0
sS'missing_restricted_stock_deferred'
p826
I1
sS'missing_restricted_stock'
p827
I0
sS'missing_shared_receipt_with_poi'
p828
I0
sS'missing_long_term_incentive'
p829
I0
ssS'CLINE KENNETH W'
p830
(dp831
g3
g5
sg4
g5
sS'missing_bonus'
p832
I1
sS'missing_director_fees'
p833
I1
sg8
g5
sg9
g50
sg10
I00
sg11
g5
sg12
g5
sg14
g5
sg15
g5
sS'missing_from_messages'
p834
I1
sS'missing_total_stock_value'
p835
I0
sS'missing_exercised_stock_options'
p836
I1
sg19
I-472568
sS'missing_deferral_payments'
p837
I1
sg21
g5
sS'missing_to_messages'
p838
I1
sg23
g5
sg24
g5
sg25
g5
sS'missing_loan_advances'
p839
I1
sS'missing_expenses'
p840
I1
sg28
g5
sg29
g5
sg30
I189518
sS'missing_other'
p841
I1
sS'missing_from_this_person_to_poi'
p842
I1
sg33
g5
sS'missing_from_poi_to_this_person'
p843
I1
sg35
I662086
sg36
g5
sS'missing_deferred_income'
p844
I1
sg38
g5
sS'missing_total_payments'
p845
I1
sg40
g5
sS'missing_salary'
p846
I1
sS'missing_restricted_stock_deferred'
p847
I0
sS'missing_restricted_stock'
p848
I0
sS'missing_shared_receipt_with_poi'
p849
I1
sS'missing_long_term_incentive'
p850
I1
ssS'LEWIS RICHARD'
p851
(dp852
g3
I952
sg4
g5
sS'missing_bonus'
p853
I1
sS'missing_director_fees'
p854
I1
sg8
g5
sg9
F0.010224948875255624
sg10
I00
sg11
g5
sg12
S'richard.lewis@enron.com'
p855
sg14
I10
sg15
g5
sS'missing_from_messages'
p856
I0
sS'missing_total_stock_value'
p857
I0
sS'missing_exercised_stock_options'
p858
I0
sg19
g5
sS'missing_deferral_payments'
p859
I1
sg21
I739
sS'missing_to_messages'
p860
I0
sg23
g5
sg24
I26
sg25
g5
sS'missing_loan_advances'
p861
I1
sS'missing_expenses'
p862
I1
sg28
g5
sg29
g5
sg30
I850477
sS'missing_other'
p863
I1
sS'missing_from_this_person_to_poi'
p864
I0
sg33
I0
sS'missing_from_poi_to_this_person'
p865
I0
sg35
g5
sg36
g5
sS'missing_deferred_income'
p866
I1
sg38
g5
sS'missing_total_payments'
p867
I1
sg40
I850477
sS'missing_salary'
p868
I1
sS'missing_restricted_stock_deferred'
p869
I1
sS'missing_restricted_stock'
p870
I1
sS'missing_shared_receipt_with_poi'
p871
I0
sS'missing_long_term_incentive'
p872
I1
ssS'HAYES ROBERT E'
p873
(dp874
g3
I504
sg4
I7961
sS'missing_bonus'
p875
I1
sS'missing_director_fees'
p876
I1
sg8
g5
sg9
F0.031007751937984496
sg10
I00
sg11
g5
sg12
S'robert.hayes@enron.com'
p877
sg14
I16
sg15
g5
sS'missing_from_messages'
p878
I0
sS'missing_total_stock_value'
p879
I0
sS'missing_exercised_stock_options'
p880
I1
sg19
g5
sS'missing_deferral_payments'
p881
I0
sg21
I50
sS'missing_to_messages'
p882
I0
sg23
g5
sg24
I12
sg25
g5
sS'missing_loan_advances'
p883
I1
sS'missing_expenses'
p884
I1
sg28
g5
sg29
g5
sg30
I151418
sS'missing_other'
p885
I1
sS'missing_from_this_person_to_poi'
p886
I0
sg33
I0
sS'missing_from_poi_to_this_person'
p887
I0
sg35
I151418
sg36
g5
sS'missing_deferred_income'
p888
I1
sg38
I7961
sS'missing_total_payments'
p889
I0
sg40
g5
sS'missing_salary'
p890
I1
sS'missing_restricted_stock_deferred'
p891
I1
sS'missing_restricted_stock'
p892
I0
sS'missing_shared_receipt_with_poi'
p893
I0
sS'missing_long_term_incentive'
p894
I1
ssS'KOPPER MICHAEL J'
p895
(dp896
g3
g5
sg4
g5
sS'missing_bonus'
p897
I0
sS'missing_director_fees'
p898
I1
sg8
I118134
sg9
g50
sg10
I01
sg11
I602671
sg12
S'michael.kopper@enron.com'
p899
sg14
g5
sg15
g5
sS'missing_from_messages'
p900
I1
sS'missing_total_stock_value'
p901
I0
sS'missing_exercised_stock_options'
p902
I1
sg19
g5
sS'missing_deferral_payments'
p903
I1
sg21
g5
sS'missing_to_messages'
p904
I1
sg23
g5
sg24
g5
sg25
I907502
sS'missing_loan_advances'
p905
I1
sS'missing_expenses'
p906
I0
sg28
g5
sg29
I800000
sg30
I985032
sS'missing_other'
p907
I0
sS'missing_from_this_person_to_poi'
p908
I1
sg33
g5
sS'missing_from_poi_to_this_person'
p909
I1
sg35
I985032
sg36
I224305
sS'missing_deferred_income'
p910
I1
sg38
I2652612
sS'missing_total_payments'
p911
I0
sg40
g5
sS'missing_salary'
p912
I0
sS'missing_restricted_stock_deferred'
p913
I1
sS'missing_restricted_stock'
p914
I0
sS'missing_shared_receipt_with_poi'
p915
I1
sS'missing_long_term_incentive'
p916
I0
ssS'LEFF DANIEL P'
p917
(dp918
g3
I2822
sg4
g5
sS'missing_bonus'
p919
I0
sS'missing_director_fees'
p920
I1
sg8
g5
sg9
F0.028076256499133447
sg10
I00
sg11
I1387399
sg12
S'dan.leff@enron.com'
p921
sg14
I67
sg15
g5
sS'missing_from_messages'
p922
I0
sS'missing_total_stock_value'
p923
I0
sS'missing_exercised_stock_options'
p924
I1
sg19
g5
sS'missing_deferral_payments'
p925
I1
sg21
I2672
sS'missing_to_messages'
p926
I0
sg23
g5
sg24
I63
sg25
I3083
sS'missing_loan_advances'
p927
I1
sS'missing_expenses'
p928
I1
sg28
g5
sg29
I1000000
sg30
I360528
sS'missing_other'
p929
I0
sS'missing_from_this_person_to_poi'
p930
I0
sg33
I14
sS'missing_from_poi_to_this_person'
p931
I0
sg35
I360528
sg36
I273746
sS'missing_deferred_income'
p932
I1
sg38
I2664228
sS'missing_total_payments'
p933
I0
sg40
g5
sS'missing_salary'
p934
I0
sS'missing_restricted_stock_deferred'
p935
I1
sS'missing_restricted_stock'
p936
I0
sS'missing_shared_receipt_with_poi'
p937
I0
sS'missing_long_term_incentive'
p938
I0
ssS'LAVORATO JOHN J'
p939
(dp940
g3
I7259
sg4
g5
sS'missing_bonus'
p941
I0
sS'missing_director_fees'
p942
I1
sg8
I49537
sg9
F0.09538805363673304
sg10
I00
sg11
I2035380
sg12
S'john.lavorato@enron.com'
p943
sg14
I528
sg15
g5
sS'missing_from_messages'
p944
I0
sS'missing_total_stock_value'
p945
I0
sS'missing_exercised_stock_options'
p946
I0
sg19
g5
sS'missing_deferral_payments'
p947
I1
sg21
I3962
sS'missing_to_messages'
p948
I0
sg23
g5
sg24
I2585
sg25
I1552
sS'missing_loan_advances'
p949
I1
sS'missing_expenses'
p950
I0
sg28
g5
sg29
I8000000
sg30
I5167144
sS'missing_other'
p951
I0
sS'missing_from_this_person_to_poi'
p952
I0
sg33
I411
sS'missing_from_poi_to_this_person'
p953
I0
sg35
I1008149
sg36
I339288
sS'missing_deferred_income'
p954
I1
sg38
I10425757
sS'missing_total_payments'
p955
I0
sg40
I4158995
sS'missing_salary'
p956
I0
sS'missing_restricted_stock_deferred'
p957
I1
sS'missing_restricted_stock'
p958
I0
sS'missing_shared_receipt_with_poi'
p959
I0
sS'missing_long_term_incentive'
p960
I0
ssS'BERBERIAN DAVID'
p961
(dp962
g3
g5
sg4
g5
sS'missing_bonus'
p963
I1
sS'missing_director_fees'
p964
I1
sg8
I11892
sg9
g50
sg10
I00
sg11
g5
sg12
S'david.berberian@enron.com'
p965
sg14
g5
sg15
g5
sS'missing_from_messages'
p966
I1
sS'missing_total_stock_value'
p967
I0
sS'missing_exercised_stock_options'
p968
I0
sg19
g5
sS'missing_deferral_payments'
p969
I1
sg21
g5
sS'missing_to_messages'
p970
I1
sg23
g5
sg24
g5
sg25
g5
sS'missing_loan_advances'
p971
I1
sS'missing_expenses'
p972
I0
sg28
g5
sg29
g5
sg30
I2493616
sS'missing_other'
p973
I1
sS'missing_from_this_person_to_poi'
p974
I1
sg33
g5
sS'missing_from_poi_to_this_person'
p975
I1
sg35
I869220
sg36
I216582
sS'missing_deferred_income'
p976
I1
sg38
I228474
sS'missing_total_payments'
p977
I0
sg40
I1624396
sS'missing_salary'
p978
I0
sS'missing_restricted_stock_deferred'
p979
I1
sS'missing_restricted_stock'
p980
I0
sS'missing_shared_receipt_with_poi'
p981
I1
sS'missing_long_term_incentive'
p982
I1
ssS'DETMERING TIMOTHY J'
p983
(dp984
g3
g5
sg4
I875307
sS'missing_bonus'
p985
I0
sS'missing_director_fees'
p986
I1
sg8
I52255
sg9
g50
sg10
I00
sg11
I415657
sg12
S'timothy.detmering@enron.com'
p987
sg14
g5
sg15
I-775241
sS'missing_from_messages'
p988
I1
sS'missing_total_stock_value'
p989
I0
sS'missing_exercised_stock_options'
p990
I0
sg19
I-315068
sS'missing_deferral_payments'
p991
I0
sg21
g5
sS'missing_to_messages'
p992
I1
sg23
g5
sg24
g5
sg25
I1105
sS'missing_loan_advances'
p993
I1
sS'missing_expenses'
p994
I0
sg28
g5
sg29
I425000
sg30
I2027865
sS'missing_other'
p995
I0
sS'missing_from_this_person_to_poi'
p996
I1
sg33
g5
sS'missing_from_poi_to_this_person'
p997
I1
sg35
I315068
sg36
I210500
sS'missing_deferred_income'
p998
I0
sg38
I1204583
sS'missing_total_payments'
p999
I0
sg40
I2027865
sS'missing_salary'
p1000
I0
sS'missing_restricted_stock_deferred'
p1001
I0
sS'missing_restricted_stock'
p1002
I0
sS'missing_shared_receipt_with_poi'
p1003
I1
sS'missing_long_term_incentive'
p1004
I0
ssS'WAKEHAM JOHN'
p1005
(dp1006
g3
g5
sg4
g5
sS'missing_bonus'
p1007
I1
sS'missing_director_fees'
p1008
I0
sg8
I103773
sg9
g50
sg10
I00
sg11
g5
sg12
g5
sg14
g5
sg15
g5
sS'missing_from_messages'
p1009
I1
sS'missing_total_stock_value'
p1010
I1
sS'missing_exercised_stock_options'
p1011
I1
sg19
g5
sS'missing_deferral_payments'
p1012
I1
sg21
g5
sS'missing_to_messages'
p1013
I1
sg23
g5
sg24
g5
sg25
g5
sS'missing_loan_advances'
p1014
I1
sS'missing_expenses'
p1015
I0
sg28
I109298
sg29
g5
sg30
g5
sS'missing_other'
p1016
I1
sS'missing_from_this_person_to_poi'
p1017
I1
sg33
g5
sS'missing_from_poi_to_this_person'
p1018
I1
sg35
g5
sg36
g5
sS'missing_deferred_income'
p1019
I1
sg38
I213071
sS'missing_total_payments'
p1020
I0
sg40
g5
sS'missing_salary'
p1021
I1
sS'missing_restricted_stock_deferred'
p1022
I1
sS'missing_restricted_stock'
p1023
I1
sS'missing_shared_receipt_with_poi'
p1024
I1
sS'missing_long_term_incentive'
p1025
I1
ssS'POWERS WILLIAM'
p1026
(dp1027
g3
I653
sg4
g5
sS'missing_bonus'
p1028
I1
sS'missing_director_fees'
p1029
I0
sg8
g5
sg9
F0.0
sg10
I00
sg11
g5
sg12
S'ken.powers@enron.com'
p1030
sg14
I0
sg15
I-17500
sS'missing_from_messages'
p1031
I0
sS'missing_total_stock_value'
p1032
I1
sS'missing_exercised_stock_options'
p1033
I1
sg19
g5
sS'missing_deferral_payments'
p1034
I1
sg21
I12
sS'missing_to_messages'
p1035
I0
sg23
g5
sg24
I26
sg25
g5
sS'missing_loan_advances'
p1036
I1
sS'missing_expenses'
p1037
I1
sg28
I17500
sg29
g5
sg30
g5
sS'missing_other'
p1038
I1
sS'missing_from_this_person_to_poi'
p1039
I0
sg33
I0
sS'missing_from_poi_to_this_person'
p1040
I0
sg35
g5
sg36
g5
sS'missing_deferred_income'
p1041
I0
sg38
g5
sS'missing_total_payments'
p1042
I1
sg40
g5
sS'missing_salary'
p1043
I1
sS'missing_restricted_stock_deferred'
p1044
I1
sS'missing_restricted_stock'
p1045
I1
sS'missing_shared_receipt_with_poi'
p1046
I0
sS'missing_long_term_incentive'
p1047
I1
ssS'GOLD JOSEPH'
p1048
(dp1049
g3
g5
sg4
g5
sS'missing_bonus'
p1050
I0
sS'missing_director_fees'
p1051
I1
sg8
g5
sg9
g50
sg10
I00
sg11
I304805
sg12
S'joe.gold@enron.com'
p1052
sg14
g5
sg15
g5
sS'missing_from_messages'
p1053
I1
sS'missing_total_stock_value'
p1054
I0
sS'missing_exercised_stock_options'
p1055
I0
sg19
g5
sS'missing_deferral_payments'
p1056
I1
sg21
g5
sS'missing_to_messages'
p1057
I1
sg23
g5
sg24
g5
sg25
I819288
sS'missing_loan_advances'
p1058
I1
sS'missing_expenses'
p1059
I1
sg28
g5
sg29
I750000
sg30
I877611
sS'missing_other'
p1060
I0
sS'missing_from_this_person_to_poi'
p1061
I1
sg33
g5
sS'missing_from_poi_to_this_person'
p1062
I1
sg35
I441096
sg36
I272880
sS'missing_deferred_income'
p1063
I1
sg38
I2146973
sS'missing_total_payments'
p1064
I0
sg40
I436515
sS'missing_salary'
p1065
I0
sS'missing_restricted_stock_deferred'
p1066
I1
sS'missing_restricted_stock'
p1067
I0
sS'missing_shared_receipt_with_poi'
p1068
I1
sS'missing_long_term_incentive'
p1069
I0
ssS'BANNANTINE JAMES M'
p1070
(dp1071
g3
I566
sg4
g5
sS'missing_bonus'
p1072
I1
sS'missing_director_fees'
p1073
I1
sg8
I56301
sg9
F0.06554621848739496
sg10
I00
sg11
g5
sg12
S'james.bannantine@enron.com'
p1074
sg14
I39
sg15
I-5104
sS'missing_from_messages'
p1075
I0
sS'missing_total_stock_value'
p1076
I0
sS'missing_exercised_stock_options'
p1077
I0
sg19
I-560222
sS'missing_deferral_payments'
p1078
I1
sg21
I465
sS'missing_to_messages'
p1079
I0
sg23
g5
sg24
I29
sg25
I864523
sS'missing_loan_advances'
p1080
I1
sS'missing_expenses'
p1081
I0
sg28
g5
sg29
g5
sg30
I5243487
sS'missing_other'
p1082
I0
sS'missing_from_this_person_to_poi'
p1083
I0
sg33
I0
sS'missing_from_poi_to_this_person'
p1084
I0
sg35
I1757552
sg36
I477
sS'missing_deferred_income'
p1085
I0
sg38
I916197
sS'missing_total_payments'
p1086
I0
sg40
I4046157
sS'missing_salary'
p1087
I0
sS'missing_restricted_stock_deferred'
p1088
I0
sS'missing_restricted_stock'
p1089
I0
sS'missing_shared_receipt_with_poi'
p1090
I0
sS'missing_long_term_incentive'
p1091
I1
ssS'DUNCAN JOHN H'
p1092
(dp1093
g3
g5
sg4
g5
sS'missing_bonus'
p1094
I1
sS'missing_director_fees'
p1095
I0
sg8
g5
sg9
g50
sg10
I00
sg11
g5
sg12
g5
sg14
g5
sg15
I-25000
sS'missing_from_messages'
p1096
I1
sS'missing_total_stock_value'
p1097
I0
sS'missing_exercised_stock_options'
p1098
I0
sg19
g5
sS'missing_deferral_payments'
p1099
I1
sg21
g5
sS'missing_to_messages'
p1100
I1
sg23
g5
sg24
g5
sg25
g5
sS'missing_loan_advances'
p1101
I1
sS'missing_expenses'
p1102
I1
sg28
I102492
sg29
g5
sg30
I371750
sS'missing_other'
p1103
I1
sS'missing_from_this_person_to_poi'
p1104
I1
sg33
g5
sS'missing_from_poi_to_this_person'
p1105
I1
sg35
g5
sg36
g5
sS'missing_deferred_income'
p1106
I0
sg38
I77492
sS'missing_total_payments'
p1107
I0
sg40
I371750
sS'missing_salary'
p1108
I1
sS'missing_restricted_stock_deferred'
p1109
I1
sS'missing_restricted_stock'
p1110
I1
sS'missing_shared_receipt_with_poi'
p1111
I1
sS'missing_long_term_incentive'
p1112
I1
ssS'SHAPIRO RICHARD S'
p1113
(dp1114
g3
I15149
sg4
g5
sS'missing_bonus'
p1115
I0
sS'missing_director_fees'
p1116
I1
sg8
I137767
sg9
F0.00849425568320704
sg10
I00
sg11
g5
sg12
S'richard.shapiro@enron.com'
p1117
sg14
I74
sg15
g5
sS'missing_from_messages'
p1118
I0
sS'missing_total_stock_value'
p1119
I0
sS'missing_exercised_stock_options'
p1120
I0
sg19
g5
sS'missing_deferral_payments'
p1121
I1
sg21
I4527
sS'missing_to_messages'
p1122
I0
sg23
g5
sg24
I1215
sg25
I705
sS'missing_loan_advances'
p1123
I1
sS'missing_expenses'
p1124
I0
sg28
g5
sg29
I650000
sg30
I987001
sS'missing_other'
p1125
I0
sS'missing_from_this_person_to_poi'
p1126
I0
sg33
I65
sS'missing_from_poi_to_this_person'
p1127
I0
sg35
I379164
sg36
I269076
sS'missing_deferred_income'
p1128
I1
sg38
I1057548
sS'missing_total_payments'
p1129
I0
sg40
I607837
sS'missing_salary'
p1130
I0
sS'missing_restricted_stock_deferred'
p1131
I1
sS'missing_restricted_stock'
p1132
I0
sS'missing_shared_receipt_with_poi'
p1133
I0
sS'missing_long_term_incentive'
p1134
I1
ssS'SHERRIFF JOHN R'
p1135
(dp1136
g3
I3187
sg4
g5
sS'missing_bonus'
p1137
I0
sS'missing_director_fees'
p1138
I1
sg8
g5
sg9
F0.01555352241537054
sg10
I00
sg11
I554422
sg12
S'john.sherriff@enron.com'
p1139
sg14
I28
sg15
g5
sS'missing_from_messages'
p1140
I0
sS'missing_total_stock_value'
p1141
I0
sS'missing_exercised_stock_options'
p1142
I0
sg19
g5
sS'missing_deferral_payments'
p1143
I1
sg21
I2103
sS'missing_to_messages'
p1144
I0
sg23
g5
sg24
I92
sg25
I1852186
sS'missing_loan_advances'
p1145
I1
sS'missing_expenses'
p1146
I1
sg28
g5
sg29
I1500000
sg30
I3128982
sS'missing_other'
p1147
I0
sS'missing_from_this_person_to_poi'
p1148
I0
sg33
I23
sS'missing_from_poi_to_this_person'
p1149
I0
sg35
I1293424
sg36
I428780
sS'missing_deferred_income'
p1150
I1
sg38
I4335388
sS'missing_total_payments'
p1151
I0
sg40
I1835558
sS'missing_salary'
p1152
I0
sS'missing_restricted_stock_deferred'
p1153
I1
sS'missing_restricted_stock'
p1154
I0
sS'missing_shared_receipt_with_poi'
p1155
I0
sS'missing_long_term_incentive'
p1156
I0
ssS'SHELBY REX'
p1157
(dp1158
g3
I225
sg4
g5
sS'missing_bonus'
p1159
I0
sS'missing_director_fees'
p1160
I1
sg8
I22884
sg9
F0.10227272727272728
sg10
I01
sg11
g5
sg12
S'rex.shelby@enron.com'
p1161
sg14
I13
sg15
I-4167
sS'missing_from_messages'
p1162
I0
sS'missing_total_stock_value'
p1163
I0
sS'missing_exercised_stock_options'
p1164
I0
sg19
g5
sS'missing_deferral_payments'
p1165
I1
sg21
I91
sS'missing_to_messages'
p1166
I0
sg23
g5
sg24
I39
sg25
I1573324
sS'missing_loan_advances'
p1167
I1
sS'missing_expenses'
p1168
I0
sg28
g5
sg29
I200000
sg30
I2493616
sS'missing_other'
p1169
I0
sS'missing_from_this_person_to_poi'
p1170
I0
sg33
I14
sS'missing_from_poi_to_this_person'
p1171
I0
sg35
I869220
sg36
I211844
sS'missing_deferred_income'
p1172
I0
sg38
I2003885
sS'missing_total_payments'
p1173
I0
sg40
I1624396
sS'missing_salary'
p1174
I0
sS'missing_restricted_stock_deferred'
p1175
I1
sS'missing_restricted_stock'
p1176
I0
sS'missing_shared_receipt_with_poi'
p1177
I0
sS'missing_long_term_incentive'
p1178
I1
ssS'LEMAISTRE CHARLES'
p1179
(dp1180
g3
g5
sg4
g5
sS'missing_bonus'
p1181
I1
sS'missing_director_fees'
p1182
I0
sg8
g5
sg9
g50
sg10
I00
sg11
g5
sg12
g5
sg14
g5
sg15
I-25000
sS'missing_from_messages'
p1183
I1
sS'missing_total_stock_value'
p1184
I0
sS'missing_exercised_stock_options'
p1185
I0
sg19
g5
sS'missing_deferral_payments'
p1186
I1
sg21
g5
sS'missing_to_messages'
p1187
I1
sg23
g5
sg24
g5
sg25
g5
sS'missing_loan_advances'
p1188
I1
sS'missing_expenses'
p1189
I1
sg28
I112492
sg29
g5
sg30
I412878
sS'missing_other'
p1190
I1
sS'missing_from_this_person_to_poi'
p1191
I1
sg33
g5
sS'missing_from_poi_to_this_person'
p1192
I1
sg35
g5
sg36
g5
sS'missing_deferred_income'
p1193
I0
sg38
I87492
sS'missing_total_payments'
p1194
I0
sg40
I412878
sS'missing_salary'
p1195
I1
sS'missing_restricted_stock_deferred'
p1196
I1
sS'missing_restricted_stock'
p1197
I1
sS'missing_shared_receipt_with_poi'
p1198
I1
sS'missing_long_term_incentive'
p1199
I1
ssS'DEFFNER JOSEPH M'
p1200
(dp1201
g3
I714
sg4
g5
sS'missing_bonus'
p1202
I0
sS'missing_director_fees'
p1203
I1
sg8
I41626
sg9
F0.15101522842639595
sg10
I00
sg11
I335349
sg12
S'joseph.deffner@enron.com'
p1204
sg14
I115
sg15
g5
sS'missing_from_messages'
p1205
I0
sS'missing_total_stock_value'
p1206
I0
sS'missing_exercised_stock_options'
p1207
I0
sg19
g5
sS'missing_deferral_payments'
p1208
I1
sg21
I552
sS'missing_to_messages'
p1209
I0
sg23
g5
sg24
I74
sg25
I25553
sS'missing_loan_advances'
p1210
I1
sS'missing_expenses'
p1211
I0
sg28
g5
sg29
I600000
sg30
I159211
sS'missing_other'
p1212
I0
sS'missing_from_this_person_to_poi'
p1213
I0
sg33
I4
sS'missing_from_poi_to_this_person'
p1214
I0
sg35
I141833
sg36
I206121
sS'missing_deferred_income'
p1215
I1
sg38
I1208649
sS'missing_total_payments'
p1216
I0
sg40
I17378
sS'missing_salary'
p1217
I0
sS'missing_restricted_stock_deferred'
p1218
I1
sS'missing_restricted_stock'
p1219
I0
sS'missing_shared_receipt_with_poi'
p1220
I0
sS'missing_long_term_incentive'
p1221
I0
ssS'KISHKILL JOSEPH G'
p1222
(dp1223
g3
g5
sg4
g5
sS'missing_bonus'
p1224
I1
sS'missing_director_fees'
p1225
I1
sg8
I116335
sg9
g50
sg10
I00
sg11
g5
sg12
S'joe.kishkill@enron.com'
p1226
sg14
g5
sg15
I-51042
sS'missing_from_messages'
p1227
I1
sS'missing_total_stock_value'
p1228
I0
sS'missing_exercised_stock_options'
p1229
I1
sg19
g5
sS'missing_deferral_payments'
p1230
I1
sg21
g5
sS'missing_to_messages'
p1231
I1
sg23
g5
sg24
g5
sg25
I465357
sS'missing_loan_advances'
p1232
I1
sS'missing_expenses'
p1233
I0
sg28
g5
sg29
g5
sg30
I1034346
sS'missing_other'
p1234
I0
sS'missing_from_this_person_to_poi'
p1235
I1
sg33
g5
sS'missing_from_poi_to_this_person'
p1236
I1
sg35
I1034346
sg36
I174246
sS'missing_deferred_income'
p1237
I0
sg38
I704896
sS'missing_total_payments'
p1238
I0
sg40
g5
sS'missing_salary'
p1239
I0
sS'missing_restricted_stock_deferred'
p1240
I1
sS'missing_restricted_stock'
p1241
I0
sS'missing_shared_receipt_with_poi'
p1242
I1
sS'missing_long_term_incentive'
p1243
I1
ssS'WHALLEY LAWRENCE G'
p1244
(dp1245
g3
I6019
sg4
g5
sS'missing_bonus'
p1246
I0
sS'missing_director_fees'
p1247
I1
sg8
I57838
sg9
F0.03193916349809886
sg10
I00
sg11
I808346
sg12
S'greg.whalley@enron.com'
p1248
sg14
I186
sg15
g5
sS'missing_from_messages'
p1249
I0
sS'missing_total_stock_value'
p1250
I0
sS'missing_exercised_stock_options'
p1251
I0
sg19
g5
sS'missing_deferral_payments'
p1252
I1
sg21
I3920
sS'missing_to_messages'
p1253
I0
sg23
g5
sg24
I556
sg25
I301026
sS'missing_loan_advances'
p1254
I1
sS'missing_expenses'
p1255
I0
sg28
g5
sg29
I3000000
sg30
I6079137
sS'missing_other'
p1256
I0
sS'missing_from_this_person_to_poi'
p1257
I0
sg33
I24
sS'missing_from_poi_to_this_person'
p1258
I0
sg35
I2796177
sg36
I510364
sS'missing_deferred_income'
p1259
I1
sg38
I4677574
sS'missing_total_payments'
p1260
I0
sg40
I3282960
sS'missing_salary'
p1261
I0
sS'missing_restricted_stock_deferred'
p1262
I1
sS'missing_restricted_stock'
p1263
I0
sS'missing_shared_receipt_with_poi'
p1264
I0
sS'missing_long_term_incentive'
p1265
I0
ssS'PIRO JIM'
p1266
(dp1267
g3
I58
sg4
g5
sS'missing_bonus'
p1268
I1
sS'missing_director_fees'
p1269
I1
sg8
g5
sg9
F0.013513513513513514
sg10
I00
sg11
g5
sg12
S'jim.piro@enron.com'
p1270
sg14
I0
sg15
g5
sS'missing_from_messages'
p1271
I0
sS'missing_total_stock_value'
p1272
I0
sS'missing_exercised_stock_options'
p1273
I1
sg19
g5
sS'missing_deferral_payments'
p1274
I1
sg21
I3
sS'missing_to_messages'
p1275
I0
sg23
g5
sg24
I16
sg25
g5
sS'missing_loan_advances'
p1276
I1
sS'missing_expenses'
p1277
I1
sg28
g5
sg29
g5
sg30
I47304
sS'missing_other'
p1278
I1
sS'missing_from_this_person_to_poi'
p1279
I0
sg33
I1
sS'missing_from_poi_to_this_person'
p1280
I0
sg35
I47304
sg36
g5
sS'missing_deferred_income'
p1281
I1
sg38
g5
sS'missing_total_payments'
p1282
I1
sg40
g5
sS'missing_salary'
p1283
I1
sS'missing_restricted_stock_deferred'
p1284
I1
sS'missing_restricted_stock'
p1285
I0
sS'missing_shared_receipt_with_poi'
p1286
I0
sS'missing_long_term_incentive'
p1287
I1
ssS'MCCONNELL MICHAEL S'
p1288
(dp1289
g3
I3329
sg4
g5
sS'missing_bonus'
p1290
I0
sS'missing_director_fees'
p1291
I1
sg8
I81364
sg9
F0.047109207708779445
sg10
I00
sg11
I554422
sg12
S'mike.mcconnell@enron.com'
p1292
sg14
I92
sg15
g5
sS'missing_from_messages'
p1293
I0
sS'missing_total_stock_value'
p1294
I0
sS'missing_exercised_stock_options'
p1295
I0
sg19
g5
sS'missing_deferral_payments'
p1296
I1
sg21
I2189
sS'missing_to_messages'
p1297
I0
sg23
g5
sg24
I2742
sg25
I540
sS'missing_loan_advances'
p1298
I1
sS'missing_expenses'
p1299
I0
sg28
g5
sg29
I1100000
sg30
I3101279
sS'missing_other'
p1300
I0
sS'missing_from_this_person_to_poi'
p1301
I0
sg33
I194
sS'missing_from_poi_to_this_person'
p1302
I0
sg35
I1478269
sg36
I365038
sS'missing_deferred_income'
p1303
I1
sg38
I2101364
sS'missing_total_payments'
p1304
I0
sg40
I1623010
sS'missing_salary'
p1305
I0
sS'missing_restricted_stock_deferred'
p1306
I1
sS'missing_restricted_stock'
p1307
I0
sS'missing_shared_receipt_with_poi'
p1308
I0
sS'missing_long_term_incentive'
p1309
I0
ssS'DELAINEY DAVID W'
p1310
(dp1311
g3
I3093
sg4
g5
sS'missing_bonus'
p1312
I0
sS'missing_director_fees'
p1313
I1
sg8
I86174
sg9
F0.10954235637779941
sg10
I01
sg11
I1294981
sg12
S'david.delainey@enron.com'
p1314
sg14
I66
sg15
g5
sS'missing_from_messages'
p1315
I0
sS'missing_total_stock_value'
p1316
I0
sS'missing_exercised_stock_options'
p1317
I0
sg19
g5
sS'missing_deferral_payments'
p1318
I1
sg21
I2097
sS'missing_to_messages'
p1319
I0
sg23
g5
sg24
I3069
sg25
I1661
sS'missing_loan_advances'
p1320
I1
sS'missing_expenses'
p1321
I0
sg28
g5
sg29
I3000000
sg30
I3614261
sS'missing_other'
p1322
I0
sS'missing_from_this_person_to_poi'
p1323
I0
sg33
I609
sS'missing_from_poi_to_this_person'
p1324
I0
sg35
I1323148
sg36
I365163
sS'missing_deferred_income'
p1325
I1
sg38
I4747979
sS'missing_total_payments'
p1326
I0
sg40
I2291113
sS'missing_salary'
p1327
I0
sS'missing_restricted_stock_deferred'
p1328
I1
sS'missing_restricted_stock'
p1329
I0
sS'missing_shared_receipt_with_poi'
p1330
I0
sS'missing_long_term_incentive'
p1331
I0
ssS'SULLIVAN-SHAKLOVITZ COLLEEN'
p1332
(dp1333
g3
g5
sg4
I181993
sS'missing_bonus'
p1334
I0
sS'missing_director_fees'
p1335
I1
sg8
g5
sg9
g50
sg10
I00
sg11
I554422
sg12
g5
sg14
g5
sg15
g5
sS'missing_from_messages'
p1336
I1
sS'missing_total_stock_value'
p1337
I0
sS'missing_exercised_stock_options'
p1338
I0
sg19
g5
sS'missing_deferral_payments'
p1339
I0
sg21
g5
sS'missing_to_messages'
p1340
I1
sg23
g5
sg24
g5
sg25
I162
sS'missing_loan_advances'
p1341
I1
sS'missing_expenses'
p1342
I1
sg28
g5
sg29
I100000
sg30
I1362375
sS'missing_other'
p1343
I0
sS'missing_from_this_person_to_poi'
p1344
I1
sg33
g5
sS'missing_from_poi_to_this_person'
p1345
I1
sg35
g5
sg36
I162779
sS'missing_deferred_income'
p1346
I1
sg38
I999356
sS'missing_total_payments'
p1347
I0
sg40
I1362375
sS'missing_salary'
p1348
I0
sS'missing_restricted_stock_deferred'
p1349
I1
sS'missing_restricted_stock'
p1350
I1
sS'missing_shared_receipt_with_poi'
p1351
I1
sS'missing_long_term_incentive'
p1352
I0
ssS'WROBEL BRUCE'
p1353
(dp1354
g3
g5
sg4
g5
sS'missing_bonus'
p1355
I1
sS'missing_director_fees'
p1356
I1
sg8
g5
sg9
g50
sg10
I00
sg11
g5
sg12
g5
sg14
g5
sg15
g5
sS'missing_from_messages'
p1357
I1
sS'missing_total_stock_value'
p1358
I0
sS'missing_exercised_stock_options'
p1359
I0
sg19
g5
sS'missing_deferral_payments'
p1360
I1
sg21
g5
sS'missing_to_messages'
p1361
I1
sg23
g5
sg24
g5
sg25
g5
sS'missing_loan_advances'
p1362
I1
sS'missing_expenses'
p1363
I1
sg28
g5
sg29
g5
sg30
I139130
sS'missing_other'
p1364
I1
sS'missing_from_this_person_to_poi'
p1365
I1
sg33
g5
sS'missing_from_poi_to_this_person'
p1366
I1
sg35
g5
sg36
g5
sS'missing_deferred_income'
p1367
I1
sg38
g5
sS'missing_total_payments'
p1368
I1
sg40
I139130
sS'missing_salary'
p1369
I1
sS'missing_restricted_stock_deferred'
p1370
I1
sS'missing_restricted_stock'
p1371
I1
sS'missing_shared_receipt_with_poi'
p1372
I1
sS'missing_long_term_incentive'
p1373
I1
ssS'LINDHOLM TOD A'
p1374
(dp1375
g3
g5
sg4
I204075
sS'missing_bonus'
p1376
I0
sS'missing_director_fees'
p1377
I1
sg8
I57727
sg9
g50
sg10
I00
sg11
I175000
sg12
S'tod.lindholm@enron.com'
p1378
sg14
g5
sg15
g5
sS'missing_from_messages'
p1379
I1
sS'missing_total_stock_value'
p1380
I0
sS'missing_exercised_stock_options'
p1381
I0
sg19
g5
sS'missing_deferral_payments'
p1382
I0
sg21
g5
sS'missing_to_messages'
p1383
I1
sg23
g5
sg24
g5
sg25
I2630
sS'missing_loan_advances'
p1384
I1
sS'missing_expenses'
p1385
I0
sg28
g5
sg29
I200000
sg30
I3064208
sS'missing_other'
p1386
I0
sS'missing_from_this_person_to_poi'
p1387
I1
sg33
g5
sS'missing_from_poi_to_this_person'
p1388
I1
sg35
I514847
sg36
I236457
sS'missing_deferred_income'
p1389
I1
sg38
I875889
sS'missing_total_payments'
p1390
I0
sg40
I2549361
sS'missing_salary'
p1391
I0
sS'missing_restricted_stock_deferred'
p1392
I1
sS'missing_restricted_stock'
p1393
I0
sS'missing_shared_receipt_with_poi'
p1394
I1
sS'missing_long_term_incentive'
p1395
I0
ssS'MEYER JEROME J'
p1396
(dp1397
g3
g5
sg4
g5
sS'missing_bonus'
p1398
I1
sS'missing_director_fees'
p1399
I0
sg8
I2151
sg9
g50
sg10
I00
sg11
g5
sg12
g5
sg14
g5
sg15
I-38346
sS'missing_from_messages'
p1400
I1
sS'missing_total_stock_value'
p1401
I1
sS'missing_exercised_stock_options'
p1402
I1
sg19
g5
sS'missing_deferral_payments'
p1403
I1
sg21
g5
sS'missing_to_messages'
p1404
I1
sg23
g5
sg24
g5
sg25
g5
sS'missing_loan_advances'
p1405
I1
sS'missing_expenses'
p1406
I0
sg28
I38346
sg29
g5
sg30
g5
sS'missing_other'
p1407
I1
sS'missing_from_this_person_to_poi'
p1408
I1
sg33
g5
sS'missing_from_poi_to_this_person'
p1409
I1
sg35
g5
sg36
g5
sS'missing_deferred_income'
p1410
I0
sg38
I2151
sS'missing_total_payments'
p1411
I0
sg40
g5
sS'missing_salary'
p1412
I1
sS'missing_restricted_stock_deferred'
p1413
I1
sS'missing_restricted_stock'
p1414
I1
sS'missing_shared_receipt_with_poi'
p1415
I1
sS'missing_long_term_incentive'
p1416
I1
ssS'LAY KENNETH L'
p1417
(dp1418
g3
I4273
sg4
I202911
sS'missing_bonus'
p1419
I0
sS'missing_director_fees'
p1420
I1
sg8
I99832
sg9
F0.03225806451612903
sg10
I01
sg11
I3600000
sg12
S'kenneth.lay@enron.com'
p1421
sg14
I123
sg15
I-300000
sS'missing_from_messages'
p1422
I0
sS'missing_total_stock_value'
p1423
I0
sS'missing_exercised_stock_options'
p1424
I0
sg19
g5
sS'missing_deferral_payments'
p1425
I0
sg21
I2411
sS'missing_to_messages'
p1426
I0
sg23
I81525000
sg24
I36
sg25
I10359729
sS'missing_loan_advances'
p1427
I0
sS'missing_expenses'
p1428
I0
sg28
g5
sg29
I7000000
sg30
I49110078
sS'missing_other'
p1429
I0
sS'missing_from_this_person_to_poi'
p1430
I0
sg33
I16
sS'missing_from_poi_to_this_person'
p1431
I0
sg35
I14761694
sg36
I1072321
sS'missing_deferred_income'
p1432
I0
sg38
I103559793
sS'missing_total_payments'
p1433
I0
sg40
I34348384
sS'missing_salary'
p1434
I0
sS'missing_restricted_stock_deferred'
p1435
I1
sS'missing_restricted_stock'
p1436
I0
sS'missing_shared_receipt_with_poi'
p1437
I0
sS'missing_long_term_incentive'
p1438
I0
ssS'BUTTS ROBERT H'
p1439
(dp1440
g3
g5
sg4
g5
sS'missing_bonus'
p1441
I0
sS'missing_director_fees'
p1442
I1
sg8
I9410
sg9
g50
sg10
I00
sg11
I175000
sg12
S'bob.butts@enron.com'
p1443
sg14
g5
sg15
I-75000
sS'missing_from_messages'
p1444
I1
sS'missing_total_stock_value'
p1445
I0
sS'missing_exercised_stock_options'
p1446
I1
sg19
g5
sS'missing_deferral_payments'
p1447
I1
sg21
g5
sS'missing_to_messages'
p1448
I1
sg23
g5
sg24
g5
sg25
I150656
sS'missing_loan_advances'
p1449
I1
sS'missing_expenses'
p1450
I0
sg28
g5
sg29
I750000
sg30
I417619
sS'missing_other'
p1451
I0
sS'missing_from_this_person_to_poi'
p1452
I1
sg33
g5
sS'missing_from_poi_to_this_person'
p1453
I1
sg35
I417619
sg36
I261516
sS'missing_deferred_income'
p1454
I0
sg38
I1271582
sS'missing_total_payments'
p1455
I0
sg40
g5
sS'missing_salary'
p1456
I0
sS'missing_restricted_stock_deferred'
p1457
I1
sS'missing_restricted_stock'
p1458
I0
sS'missing_shared_receipt_with_poi'
p1459
I1
sS'missing_long_term_incentive'
p1460
I0
ssS'OLSON CINDY K'
p1461
(dp1462
g3
I1184
sg4
I77716
sS'missing_bonus'
p1463
I0
sS'missing_director_fees'
p1464
I1
sg8
I63791
sg9
F0.02831715210355987
sg10
I00
sg11
I100000
sg12
S'cindy.olson@enron.com'
p1465
sg14
I20
sg15
g5
sS'missing_from_messages'
p1466
I0
sS'missing_total_stock_value'
p1467
I0
sS'missing_exercised_stock_options'
p1468
I0
sg19
g5
sS'missing_deferral_payments'
p1469
I0
sg21
I856
sS'missing_to_messages'
p1470
I0
sg23
g5
sg24
I52
sg25
I972
sS'missing_loan_advances'
p1471
I1
sS'missing_expenses'
p1472
I0
sg28
g5
sg29
I750000
sg30
I2606763
sS'missing_other'
p1473
I0
sS'missing_from_this_person_to_poi'
p1474
I0
sg33
I15
sS'missing_from_poi_to_this_person'
p1475
I0
sg35
I969729
sg36
I329078
sS'missing_deferred_income'
p1476
I1
sg38
I1321557
sS'missing_total_payments'
p1477
I0
sg40
I1637034
sS'missing_salary'
p1478
I0
sS'missing_restricted_stock_deferred'
p1479
I1
sS'missing_restricted_stock'
p1480
I0
sS'missing_shared_receipt_with_poi'
p1481
I0
sS'missing_long_term_incentive'
p1482
I0
ssS'MCDONALD REBECCA'
p1483
(dp1484
g3
I894
sg4
g5
sS'missing_bonus'
p1485
I1
sS'missing_director_fees'
p1486
I1
sg8
g5
sg9
F0.06063947078280044
sg10
I00
sg11
g5
sg12
S'rebecca.mcdonald@enron.com'
p1487
sg14
I54
sg15
g5
sS'missing_from_messages'
p1488
I0
sS'missing_total_stock_value'
p1489
I0
sS'missing_exercised_stock_options'
p1490
I0
sg19
g5
sS'missing_deferral_payments'
p1491
I1
sg21
I720
sS'missing_to_messages'
p1492
I0
sg23
g5
sg24
I13
sg25
g5
sS'missing_loan_advances'
p1493
I1
sS'missing_expenses'
p1494
I1
sg28
g5
sg29
g5
sg30
I1691366
sS'missing_other'
p1495
I1
sS'missing_from_this_person_to_poi'
p1496
I0
sg33
I1
sS'missing_from_poi_to_this_person'
p1497
I0
sg35
I934065
sg36
g5
sS'missing_deferred_income'
p1498
I1
sg38
g5
sS'missing_total_payments'
p1499
I1
sg40
I757301
sS'missing_salary'
p1500
I1
sS'missing_restricted_stock_deferred'
p1501
I1
sS'missing_restricted_stock'
p1502
I0
sS'missing_shared_receipt_with_poi'
p1503
I0
sS'missing_long_term_incentive'
p1504
I1
ssS'CUMBERLAND MICHAEL S'
p1505
(dp1506
g3
g5
sg4
g5
sS'missing_bonus'
p1507
I0
sS'missing_director_fees'
p1508
I1
sg8
I22344
sg9
g50
sg10
I00
sg11
I275000
sg12
g5
sg14
g5
sg15
g5
sS'missing_from_messages'
p1509
I1
sS'missing_total_stock_value'
p1510
I0
sS'missing_exercised_stock_options'
p1511
I1
sg19
g5
sS'missing_deferral_payments'
p1512
I1
sg21
g5
sS'missing_to_messages'
p1513
I1
sg23
g5
sg24
g5
sg25
I713
sS'missing_loan_advances'
p1514
I1
sS'missing_expenses'
p1515
I0
sg28
g5
sg29
I325000
sg30
I207940
sS'missing_other'
p1516
I0
sS'missing_from_this_person_to_poi'
p1517
I1
sg33
g5
sS'missing_from_poi_to_this_person'
p1518
I1
sg35
I207940
sg36
I184899
sS'missing_deferred_income'
p1519
I1
sg38
I807956
sS'missing_total_payments'
p1520
I0
sg40
g5
sS'missing_salary'
p1521
I0
sS'missing_restricted_stock_deferred'
p1522
I1
sS'missing_restricted_stock'
p1523
I0
sS'missing_shared_receipt_with_poi'
p1524
I1
sS'missing_long_term_incentive'
p1525
I0
ssS'GAHN ROBERT S'
p1526
(dp1527
g3
g5
sg4
I73122
sS'missing_bonus'
p1528
I0
sS'missing_director_fees'
p1529
I1
sg8
I50080
sg9
g50
sg10
I00
sg11
g5
sg12
g5
sg14
g5
sg15
I-1042
sS'missing_from_messages'
p1530
I1
sS'missing_total_stock_value'
p1531
I0
sS'missing_exercised_stock_options'
p1532
I0
sg19
g5
sS'missing_deferral_payments'
p1533
I0
sg21
g5
sS'missing_to_messages'
p1534
I1
sg23
g5
sg24
g5
sg25
I76547
sS'missing_loan_advances'
p1535
I1
sS'missing_expenses'
p1536
I0
sg28
g5
sg29
I509870
sg30
I318607
sS'missing_other'
p1537
I0
sS'missing_from_this_person_to_poi'
p1538
I1
sg33
g5
sS'missing_from_poi_to_this_person'
p1539
I1
sg35
I235370
sg36
I192008
sS'missing_deferred_income'
p1540
I0
sg38
I900585
sS'missing_total_payments'
p1541
I0
sg40
I83237
sS'missing_salary'
p1542
I0
sS'missing_restricted_stock_deferred'
p1543
I1
sS'missing_restricted_stock'
p1544
I0
sS'missing_shared_receipt_with_poi'
p1545
I1
sS'missing_long_term_incentive'
p1546
I1
ssS'BADUM JAMES P'
p1547
(dp1548
g3
g5
sg4
I178980
sS'missing_bonus'
p1549
I1
sS'missing_director_fees'
p1550
I1
sg8
I3486
sg9
g50
sg10
I00
sg11
g5
sg12
g5
sg14
g5
sg15
g5
sS'missing_from_messages'
p1551
I1
sS'missing_total_stock_value'
p1552
I0
sS'missing_exercised_stock_options'
p1553
I0
sg19
g5
sS'missing_deferral_payments'
p1554
I0
sg21
g5
sS'missing_to_messages'
p1555
I1
sg23
g5
sg24
g5
sg25
g5
sS'missing_loan_advances'
p1556
I1
sS'missing_expenses'
p1557
I0
sg28
g5
sg29
g5
sg30
I257817
sS'missing_other'
p1558
I1
sS'missing_from_this_person_to_poi'
p1559
I1
sg33
g5
sS'missing_from_poi_to_this_person'
p1560
I1
sg35
g5
sg36
g5
sS'missing_deferred_income'
p1561
I1
sg38
I182466
sS'missing_total_payments'
p1562
I0
sg40
I257817
sS'missing_salary'
p1563
I1
sS'missing_restricted_stock_deferred'
p1564
I1
sS'missing_restricted_stock'
p1565
I1
sS'missing_shared_receipt_with_poi'
p1566
I1
sS'missing_long_term_incentive'
p1567
I1
ssS'HERMANN ROBERT J'
p1568
(dp1569
g3
g5
sg4
g5
sS'missing_bonus'
p1570
I0
sS'missing_director_fees'
p1571
I1
sg8
I48357
sg9
g50
sg10
I00
sg11
I150000
sg12
S'robert.hermann@enron.com'
p1572
sg14
g5
sg15
I-280000
sS'missing_from_messages'
p1573
I1
sS'missing_total_stock_value'
p1574
I0
sS'missing_exercised_stock_options'
p1575
I0
sg19
g5
sS'missing_deferral_payments'
p1576
I1
sg21
g5
sS'missing_to_messages'
p1577
I1
sg23
g5
sg24
g5
sg25
I416441
sS'missing_loan_advances'
p1578
I1
sS'missing_expenses'
p1579
I0
sg28
g5
sg29
I700000
sg30
I668132
sS'missing_other'
p1580
I0
sS'missing_from_this_person_to_poi'
p1581
I1
sg33
g5
sS'missing_from_poi_to_this_person'
p1582
I1
sg35
I480632
sg36
I262663
sS'missing_deferred_income'
p1583
I0
sg38
I1297461
sS'missing_total_payments'
p1584
I0
sg40
I187500
sS'missing_salary'
p1585
I0
sS'missing_restricted_stock_deferred'
p1586
I1
sS'missing_restricted_stock'
p1587
I0
sS'missing_shared_receipt_with_poi'
p1588
I1
sS'missing_long_term_incentive'
p1589
I0
ssS'FALLON JAMES B'
p1590
(dp1591
g3
I1755
sg4
g5
sS'missing_bonus'
p1592
I0
sS'missing_director_fees'
p1593
I1
sg8
I95924
sg9
F0.04316939890710383
sg10
I00
sg11
I374347
sg12
S'jim.fallon@enron.com'
p1594
sg14
I42
sg15
g5
sS'missing_from_messages'
p1595
I0
sS'missing_total_stock_value'
p1596
I0
sS'missing_exercised_stock_options'
p1597
I0
sg19
g5
sS'missing_deferral_payments'
p1598
I1
sg21
I1604
sS'missing_to_messages'
p1599
I0
sg23
g5
sg24
I75
sg25
I401481
sS'missing_loan_advances'
p1600
I1
sS'missing_expenses'
p1601
I0
sg28
g5
sg29
I2500000
sg30
I2332399
sS'missing_other'
p1602
I0
sS'missing_from_this_person_to_poi'
p1603
I0
sg33
I37
sS'missing_from_poi_to_this_person'
p1604
I0
sg35
I1392142
sg36
I304588
sS'missing_deferred_income'
p1605
I1
sg38
I3676340
sS'missing_total_payments'
p1606
I0
sg40
I940257
sS'missing_salary'
p1607
I0
sS'missing_restricted_stock_deferred'
p1608
I1
sS'missing_restricted_stock'
p1609
I0
sS'missing_shared_receipt_with_poi'
p1610
I0
sS'missing_long_term_incentive'
p1611
I0
ssS'GATHMANN WILLIAM D'
p1612
(dp1613
g3
g5
sg4
g5
sS'missing_bonus'
p1614
I1
sS'missing_director_fees'
p1615
I1
sg8
g5
sg9
g50
sg10
I00
sg11
g5
sg12
g5
sg14
g5
sg15
g5
sS'missing_from_messages'
p1616
I1
sS'missing_total_stock_value'
p1617
I0
sS'missing_exercised_stock_options'
p1618
I0
sg19
I-72419
sS'missing_deferral_payments'
p1619
I1
sg21
g5
sS'missing_to_messages'
p1620
I1
sg23
g5
sg24
g5
sg25
g5
sS'missing_loan_advances'
p1621
I1
sS'missing_expenses'
p1622
I1
sg28
g5
sg29
g5
sg30
I1945360
sS'missing_other'
p1623
I1
sS'missing_from_this_person_to_poi'
p1624
I1
sg33
g5
sS'missing_from_poi_to_this_person'
p1625
I1
sg35
I264013
sg36
g5
sS'missing_deferred_income'
p1626
I1
sg38
g5
sS'missing_total_payments'
p1627
I1
sg40
I1753766
sS'missing_salary'
p1628
I1
sS'missing_restricted_stock_deferred'
p1629
I0
sS'missing_restricted_stock'
p1630
I0
sS'missing_shared_receipt_with_poi'
p1631
I1
sS'missing_long_term_incentive'
p1632
I1
ssS'HORTON STANLEY C'
p1633
(dp1634
g3
I2350
sg4
I3131860
sS'missing_bonus'
p1635
I1
sS'missing_director_fees'
p1636
I1
sg8
g5
sg9
F0.017236342389716622
sg10
I00
sg11
g5
sg12
S'stanley.horton@enron.com'
p1637
sg14
I44
sg15
g5
sS'missing_from_messages'
p1638
I0
sS'missing_total_stock_value'
p1639
I0
sS'missing_exercised_stock_options'
p1640
I0
sg19
g5
sS'missing_deferral_payments'
p1641
I0
sg21
I1074
sS'missing_to_messages'
p1642
I0
sg23
g5
sg24
I1073
sg25
g5
sS'missing_loan_advances'
p1643
I1
sS'missing_expenses'
p1644
I1
sg28
g5
sg29
g5
sg30
I7256648
sS'missing_other'
p1645
I1
sS'missing_from_this_person_to_poi'
p1646
I0
sg33
I15
sS'missing_from_poi_to_this_person'
p1647
I0
sg35
I2046079
sg36
g5
sS'missing_deferred_income'
p1648
I1
sg38
I3131860
sS'missing_total_payments'
p1649
I0
sg40
I5210569
sS'missing_salary'
p1650
I1
sS'missing_restricted_stock_deferred'
p1651
I1
sS'missing_restricted_stock'
p1652
I0
sS'missing_shared_receipt_with_poi'
p1653
I0
sS'missing_long_term_incentive'
p1654
I1
ssS'BOWEN JR RAYMOND M'
p1655
(dp1656
g3
I1858
sg4
g5
sS'missing_bonus'
p1657
I0
sS'missing_director_fees'
p1658
I1
sg8
I65907
sg9
F0.08222811671087533
sg10
I01
sg11
I974293
sg12
S'raymond.bowen@enron.com'
p1659
sg14
I140
sg15
I-833
sS'missing_from_messages'
p1660
I0
sS'missing_total_stock_value'
p1661
I0
sS'missing_exercised_stock_options'
p1662
I1
sg19
g5
sS'missing_deferral_payments'
p1663
I1
sg21
I1593
sS'missing_to_messages'
p1664
I0
sg23
g5
sg24
I27
sg25
I1621
sS'missing_loan_advances'
p1665
I1
sS'missing_expenses'
p1666
I0
sg28
g5
sg29
I1350000
sg30
I252055
sS'missing_other'
p1667
I0
sS'missing_from_this_person_to_poi'
p1668
I0
sg33
I15
sS'missing_from_poi_to_this_person'
p1669
I0
sg35
I252055
sg36
I278601
sS'missing_deferred_income'
p1670
I0
sg38
I2669589
sS'missing_total_payments'
p1671
I0
sg40
g5
sS'missing_salary'
p1672
I0
sS'missing_restricted_stock_deferred'
p1673
I1
sS'missing_restricted_stock'
p1674
I0
sS'missing_shared_receipt_with_poi'
p1675
I0
sS'missing_long_term_incentive'
p1676
I0
ssS'GILLIS JOHN'
p1677
(dp1678
g3
g5
sg4
g5
sS'missing_bonus'
p1679
I1
sS'missing_director_fees'
p1680
I1
sg8
g5
sg9
g50
sg10
I00
sg11
g5
sg12
g5
sg14
g5
sg15
g5
sS'missing_from_messages'
p1681
I1
sS'missing_total_stock_value'
p1682
I0
sS'missing_exercised_stock_options'
p1683
I0
sg19
g5
sS'missing_deferral_payments'
p1684
I1
sg21
g5
sS'missing_to_messages'
p1685
I1
sg23
g5
sg24
g5
sg25
g5
sS'missing_loan_advances'
p1686
I1
sS'missing_expenses'
p1687
I1
sg28
g5
sg29
g5
sg30
I85641
sS'missing_other'
p1688
I1
sS'missing_from_this_person_to_poi'
p1689
I1
sg33
g5
sS'missing_from_poi_to_this_person'
p1690
I1
sg35
I75838
sg36
g5
sS'missing_deferred_income'
p1691
I1
sg38
g5
sS'missing_total_payments'
p1692
I1
sg40
I9803
sS'missing_salary'
p1693
I1
sS'missing_restricted_stock_deferred'
p1694
I1
sS'missing_restricted_stock'
p1695
I0
sS'missing_shared_receipt_with_poi'
p1696
I1
sS'missing_long_term_incentive'
p1697
I1
ssS'FITZGERALD JAY L'
p1698
(dp1699
g3
I936
sg4
g5
sS'missing_bonus'
p1700
I0
sS'missing_director_fees'
p1701
I1
sg8
I23870
sg9
F0.009453781512605041
sg10
I00
sg11
I556416
sg12
S'jay.fitzgerald@enron.com'
p1702
sg14
I1
sg15
g5
sS'missing_from_messages'
p1703
I0
sS'missing_total_stock_value'
p1704
I0
sS'missing_exercised_stock_options'
p1705
I0
sg19
g5
sS'missing_deferral_payments'
p1706
I1
sg21
I723
sS'missing_to_messages'
p1707
I0
sg23
g5
sg24
I16
sg25
I285414
sS'missing_loan_advances'
p1708
I1
sS'missing_expenses'
p1709
I0
sg28
g5
sg29
I350000
sg30
I1621236
sS'missing_other'
p1710
I0
sS'missing_from_this_person_to_poi'
p1711
I0
sg33
I8
sS'missing_from_poi_to_this_person'
p1712
I0
sg35
I956775
sg36
I199157
sS'missing_deferred_income'
p1713
I1
sg38
I1414857
sS'missing_total_payments'
p1714
I0
sg40
I664461
sS'missing_salary'
p1715
I0
sS'missing_restricted_stock_deferred'
p1716
I1
sS'missing_restricted_stock'
p1717
I0
sS'missing_shared_receipt_with_poi'
p1718
I0
sS'missing_long_term_incentive'
p1719
I0
ssS'MORAN MICHAEL P'
p1720
(dp1721
g3
I672
sg4
g5
sS'missing_bonus'
p1722
I1
sS'missing_director_fees'
p1723
I1
sg8
g5
sg9
F0.0
sg10
I00
sg11
g5
sg12
S'michael.moran@enron.com'
p1724
sg14
I0
sg15
g5
sS'missing_from_messages'
p1725
I0
sS'missing_total_stock_value'
p1726
I0
sS'missing_exercised_stock_options'
p1727
I0
sg19
g5
sS'missing_deferral_payments'
p1728
I1
sg21
I127
sS'missing_to_messages'
p1729
I0
sg23
g5
sg24
I19
sg25
g5
sS'missing_loan_advances'
p1730
I1
sS'missing_expenses'
p1731
I1
sg28
g5
sg29
g5
sg30
I221141
sS'missing_other'
p1732
I1
sS'missing_from_this_person_to_poi'
p1733
I0
sg33
I0
sS'missing_from_poi_to_this_person'
p1734
I0
sg35
I161602
sg36
g5
sS'missing_deferred_income'
p1735
I1
sg38
g5
sS'missing_total_payments'
p1736
I1
sg40
I59539
sS'missing_salary'
p1737
I1
sS'missing_restricted_stock_deferred'
p1738
I1
sS'missing_restricted_stock'
p1739
I0
sS'missing_shared_receipt_with_poi'
p1740
I0
sS'missing_long_term_incentive'
p1741
I1
ssS'REDMOND BRIAN L'
p1742
(dp1743
g3
I1671
sg4
g5
sS'missing_bonus'
p1744
I1
sS'missing_director_fees'
p1745
I1
sg8
I14689
sg9
F0.13372093023255813
sg10
I00
sg11
g5
sg12
S'brian.redmond@enron.com'
p1746
sg14
I204
sg15
g5
sS'missing_from_messages'
p1747
I0
sS'missing_total_stock_value'
p1748
I0
sS'missing_exercised_stock_options'
p1749
I0
sg19
g5
sS'missing_deferral_payments'
p1750
I1
sg21
I1063
sS'missing_to_messages'
p1751
I0
sg23
g5
sg24
I221
sg25
g5
sS'missing_loan_advances'
p1752
I1
sS'missing_expenses'
p1753
I0
sg28
g5
sg29
g5
sg30
I7890324
sS'missing_other'
p1754
I1
sS'missing_from_this_person_to_poi'
p1755
I0
sg33
I49
sS'missing_from_poi_to_this_person'
p1756
I0
sg35
I381285
sg36
I96840
sS'missing_deferred_income'
p1757
I1
sg38
I111529
sS'missing_total_payments'
p1758
I0
sg40
I7509039
sS'missing_salary'
p1759
I0
sS'missing_restricted_stock_deferred'
p1760
I1
sS'missing_restricted_stock'
p1761
I0
sS'missing_shared_receipt_with_poi'
p1762
I0
sS'missing_long_term_incentive'
p1763
I1
ssS'BAZELIDES PHILIP J'
p1764
(dp1765
g3
g5
sg4
I684694
sS'missing_bonus'
p1766
I1
sS'missing_director_fees'
p1767
I1
sg8
g5
sg9
g50
sg10
I00
sg11
I93750
sg12
g5
sg14
g5
sg15
g5
sS'missing_from_messages'
p1768
I1
sS'missing_total_stock_value'
p1769
I0
sS'missing_exercised_stock_options'
p1770
I0
sg19
g5
sS'missing_deferral_payments'
p1771
I0
sg21
g5
sS'missing_to_messages'
p1772
I1
sg23
g5
sg24
g5
sg25
I874
sS'missing_loan_advances'
p1773
I1
sS'missing_expenses'
p1774
I1
sg28
g5
sg29
g5
sg30
I1599641
sS'missing_other'
p1775
I0
sS'missing_from_this_person_to_poi'
p1776
I1
sg33
g5
sS'missing_from_poi_to_this_person'
p1777
I1
sg35
g5
sg36
I80818
sS'missing_deferred_income'
p1778
I1
sg38
I860136
sS'missing_total_payments'
p1779
I0
sg40
I1599641
sS'missing_salary'
p1780
I0
sS'missing_restricted_stock_deferred'
p1781
I1
sS'missing_restricted_stock'
p1782
I1
sS'missing_shared_receipt_with_poi'
p1783
I1
sS'missing_long_term_incentive'
p1784
I0
ssS'BELDEN TIMOTHY N'
p1785
(dp1786
g3
I7991
sg4
I2144013
sS'missing_bonus'
p1787
I0
sS'missing_director_fees'
p1788
I1
sg8
I17355
sg9
F0.03964601769911504
sg10
I01
sg11
g5
sg12
S'tim.belden@enron.com'
p1789
sg14
I228
sg15
I-2334434
sS'missing_from_messages'
p1790
I0
sS'missing_total_stock_value'
p1791
I0
sS'missing_exercised_stock_options'
p1792
I0
sg19
g5
sS'missing_deferral_payments'
p1793
I0
sg21
I5521
sS'missing_to_messages'
p1794
I0
sg23
g5
sg24
I484
sg25
I210698
sS'missing_loan_advances'
p1795
I1
sS'missing_expenses'
p1796
I0
sg28
g5
sg29
I5249999
sg30
I1110705
sS'missing_other'
p1797
I0
sS'missing_from_this_person_to_poi'
p1798
I0
sg33
I108
sS'missing_from_poi_to_this_person'
p1799
I0
sg35
I157569
sg36
I213999
sS'missing_deferred_income'
p1800
I0
sg38
I5501630
sS'missing_total_payments'
p1801
I0
sg40
I953136
sS'missing_salary'
p1802
I0
sS'missing_restricted_stock_deferred'
p1803
I1
sS'missing_restricted_stock'
p1804
I0
sS'missing_shared_receipt_with_poi'
p1805
I0
sS'missing_long_term_incentive'
p1806
I1
ssS'DIMICHELE RICHARD G'
p1807
(dp1808
g3
g5
sg4
g5
sS'missing_bonus'
p1809
I0
sS'missing_director_fees'
p1810
I1
sg8
I35812
sg9
g50
sg10
I00
sg11
I694862
sg12
S'richard.dimichele@enron.com'
p1811
sg14
g5
sg15
g5
sS'missing_from_messages'
p1812
I1
sS'missing_total_stock_value'
p1813
I0
sS'missing_exercised_stock_options'
p1814
I0
sg19
g5
sS'missing_deferral_payments'
p1815
I1
sg21
g5
sS'missing_to_messages'
p1816
I1
sg23
g5
sg24
g5
sg25
I374689
sS'missing_loan_advances'
p1817
I1
sS'missing_expenses'
p1818
I0
sg28
g5
sg29
I1000000
sg30
I8317782
sS'missing_other'
p1819
I0
sS'missing_from_this_person_to_poi'
p1820
I1
sg33
g5
sS'missing_from_poi_to_this_person'
p1821
I1
sg35
I126027
sg36
I262788
sS'missing_deferred_income'
p1822
I1
sg38
I2368151
sS'missing_total_payments'
p1823
I0
sg40
I8191755
sS'missing_salary'
p1824
I0
sS'missing_restricted_stock_deferred'
p1825
I1
sS'missing_restricted_stock'
p1826
I0
sS'missing_shared_receipt_with_poi'
p1827
I1
sS'missing_long_term_incentive'
p1828
I0
ssS'DURAN WILLIAM D'
p1829
(dp1830
g3
I904
sg4
g5
sS'missing_bonus'
p1831
I0
sS'missing_director_fees'
p1832
I1
sg8
I25785
sg9
F0.11899563318777293
sg10
I00
sg11
I1105218
sg12
S'w.duran@enron.com'
p1833
sg14
I106
sg15
g5
sS'missing_from_messages'
p1834
I0
sS'missing_total_stock_value'
p1835
I0
sS'missing_exercised_stock_options'
p1836
I0
sg19
g5
sS'missing_deferral_payments'
p1837
I1
sg21
I599
sS'missing_to_messages'
p1838
I0
sg23
g5
sg24
I12
sg25
I1568
sS'missing_loan_advances'
p1839
I1
sS'missing_expenses'
p1840
I0
sg28
g5
sg29
I750000
sg30
I1640910
sS'missing_other'
p1841
I0
sS'missing_from_this_person_to_poi'
p1842
I0
sg33
I3
sS'missing_from_poi_to_this_person'
p1843
I0
sg35
I189041
sg36
I210692
sS'missing_deferred_income'
p1844
I1
sg38
I2093263
sS'missing_total_payments'
p1845
I0
sg40
I1451869
sS'missing_salary'
p1846
I0
sS'missing_restricted_stock_deferred'
p1847
I1
sS'missing_restricted_stock'
p1848
I0
sS'missing_shared_receipt_with_poi'
p1849
I0
sS'missing_long_term_incentive'
p1850
I0
ssS'THORN TERENCE H'
p1851
(dp1852
g3
I266
sg4
I16586
sS'missing_bonus'
p1853
I1
sS'missing_director_fees'
p1854
I1
sg8
I46145
sg9
F0.0
sg10
I00
sg11
I200000
sg12
S'terence.thorn@enron.com'
p1855
sg14
I0
sg15
g5
sS'missing_from_messages'
p1856
I0
sS'missing_total_stock_value'
p1857
I0
sS'missing_exercised_stock_options'
p1858
I0
sg19
g5
sS'missing_deferral_payments'
p1859
I0
sg21
I73
sS'missing_to_messages'
p1860
I0
sg23
g5
sg24
I41
sg25
I426629
sS'missing_loan_advances'
p1861
I1
sS'missing_expenses'
p1862
I0
sg28
g5
sg29
g5
sg30
I4817796
sS'missing_other'
p1863
I0
sS'missing_from_this_person_to_poi'
p1864
I0
sg33
I0
sS'missing_from_poi_to_this_person'
p1865
I0
sg35
I365320
sg36
I222093
sS'missing_deferred_income'
p1866
I1
sg38
I911453
sS'missing_total_payments'
p1867
I0
sg40
I4452476
sS'missing_salary'
p1868
I0
sS'missing_restricted_stock_deferred'
p1869
I1
sS'missing_restricted_stock'
p1870
I0
sS'missing_shared_receipt_with_poi'
p1871
I0
sS'missing_long_term_incentive'
p1872
I0
ssS'FASTOW ANDREW S'
p1873
(dp1874
g3
g5
sg4
g5
sS'missing_bonus'
p1875
I0
sS'missing_director_fees'
p1876
I1
sg8
I55921
sg9
g50
sg10
I01
sg11
I1736055
sg12
S'andrew.fastow@enron.com'
p1877
sg14
g5
sg15
I-1386055
sS'missing_from_messages'
p1878
I1
sS'missing_total_stock_value'
p1879
I0
sS'missing_exercised_stock_options'
p1880
I1
sg19
g5
sS'missing_deferral_payments'
p1881
I1
sg21
g5
sS'missing_to_messages'
p1882
I1
sg23
g5
sg24
g5
sg25
I277464
sS'missing_loan_advances'
p1883
I1
sS'missing_expenses'
p1884
I0
sg28
g5
sg29
I1300000
sg30
I1794412
sS'missing_other'
p1885
I0
sS'missing_from_this_person_to_poi'
p1886
I1
sg33
g5
sS'missing_from_poi_to_this_person'
p1887
I1
sg35
I1794412
sg36
I440698
sS'missing_deferred_income'
p1888
I0
sg38
I2424083
sS'missing_total_payments'
p1889
I0
sg40
g5
sS'missing_salary'
p1890
I0
sS'missing_restricted_stock_deferred'
p1891
I1
sS'missing_restricted_stock'
p1892
I0
sS'missing_shared_receipt_with_poi'
p1893
I1
sS'missing_long_term_incentive'
p1894
I0
ssS'FOY JOE'
p1895
(dp1896
g3
I57
sg4
I181755
sS'missing_bonus'
p1897
I1
sS'missing_director_fees'
p1898
I1
sg8
g5
sg9
F0.0
sg10
I00
sg11
g5
sg12
S'tracy.foy@enron.com'
p1899
sg14
I0
sg15
g5
sS'missing_from_messages'
p1900
I0
sS'missing_total_stock_value'
p1901
I0
sS'missing_exercised_stock_options'
p1902
I0
sg19
g5
sS'missing_deferral_payments'
p1903
I0
sg21
I2
sS'missing_to_messages'
p1904
I0
sg23
g5
sg24
I13
sg25
g5
sS'missing_loan_advances'
p1905
I1
sS'missing_expenses'
p1906
I1
sg28
g5
sg29
g5
sg30
I343434
sS'missing_other'
p1907
I1
sS'missing_from_this_person_to_poi'
p1908
I0
sg33
I0
sS'missing_from_poi_to_this_person'
p1909
I0
sg35
g5
sg36
g5
sS'missing_deferred_income'
p1910
I1
sg38
I181755
sS'missing_total_payments'
p1911
I0
sg40
I343434
sS'missing_salary'
p1912
I1
sS'missing_restricted_stock_deferred'
p1913
I1
sS'missing_restricted_stock'
p1914
I1
sS'missing_shared_receipt_with_poi'
p1915
I0
sS'missing_long_term_incentive'
p1916
I1
ssS'CALGER CHRISTOPHER F'
p1917
(dp1918
g3
I2598
sg4
g5
sS'missing_bonus'
p1919
I0
sS'missing_director_fees'
p1920
I1
sg8
I35818
sg9
F0.08169219547775347
sg10
I01
sg11
I375304
sg12
S'christopher.calger@enron.com'
p1921
sg14
I199
sg15
I-262500
sS'missing_from_messages'
p1922
I0
sS'missing_total_stock_value'
p1923
I0
sS'missing_exercised_stock_options'
p1924
I1
sg19
g5
sS'missing_deferral_payments'
p1925
I1
sg21
I2188
sS'missing_to_messages'
p1926
I0
sg23
g5
sg24
I144
sg25
I486
sS'missing_loan_advances'
p1927
I1
sS'missing_expenses'
p1928
I0
sg28
g5
sg29
I1250000
sg30
I126027
sS'missing_other'
p1929
I0
sS'missing_from_this_person_to_poi'
p1930
I0
sg33
I25
sS'missing_from_poi_to_this_person'
p1931
I0
sg35
I126027
sg36
I240189
sS'missing_deferred_income'
p1932
I0
sg38
I1639297
sS'missing_total_payments'
p1933
I0
sg40
g5
sS'missing_salary'
p1934
I0
sS'missing_restricted_stock_deferred'
p1935
I1
sS'missing_restricted_stock'
p1936
I0
sS'missing_shared_receipt_with_poi'
p1937
I0
sS'missing_long_term_incentive'
p1938
I0
ssS'RICE KENNETH D'
p1939
(dp1940
g3
I905
sg4
g5
sS'missing_bonus'
p1941
I0
sS'missing_director_fees'
p1942
I1
sg8
I46950
sg9
F0.04983748645720477
sg10
I01
sg11
I1617011
sg12
S'ken.rice@enron.com'
p1943
sg14
I42
sg15
I-3504386
sS'missing_from_messages'
p1944
I0
sS'missing_total_stock_value'
p1945
I0
sS'missing_exercised_stock_options'
p1946
I0
sg19
g5
sS'missing_deferral_payments'
p1947
I1
sg21
I864
sS'missing_to_messages'
p1948
I0
sg23
g5
sg24
I18
sg25
I174839
sS'missing_loan_advances'
p1949
I1
sS'missing_expenses'
p1950
I0
sg28
g5
sg29
I1750000
sg30
I22542539
sS'missing_other'
p1951
I0
sS'missing_from_this_person_to_poi'
p1952
I0
sg33
I4
sS'missing_from_poi_to_this_person'
p1953
I0
sg35
I2748364
sg36
I420636
sS'missing_deferred_income'
p1954
I0
sg38
I505050
sS'missing_total_payments'
p1955
I0
sg40
I19794175
sS'missing_salary'
p1956
I0
sS'missing_restricted_stock_deferred'
p1957
I1
sS'missing_restricted_stock'
p1958
I0
sS'missing_shared_receipt_with_poi'
p1959
I0
sS'missing_long_term_incentive'
p1960
I0
ssS'KAMINSKI WINCENTY J'
p1961
(dp1962
g3
I4607
sg4
g5
sS'missing_bonus'
p1963
I0
sS'missing_director_fees'
p1964
I1
sg8
I83585
sg9
F0.011172595520421607
sg10
I00
sg11
I323466
sg12
S'vince.kaminski@enron.com'
p1965
sg14
I41
sg15
g5
sS'missing_from_messages'
p1966
I0
sS'missing_total_stock_value'
p1967
I0
sS'missing_exercised_stock_options'
p1968
I0
sg19
g5
sS'missing_deferral_payments'
p1969
I1
sg21
I583
sS'missing_to_messages'
p1970
I0
sg23
g5
sg24
I14368
sg25
I4669
sS'missing_loan_advances'
p1971
I1
sS'missing_expenses'
p1972
I0
sg28
g5
sg29
I400000
sg30
I976037
sS'missing_other'
p1973
I0
sS'missing_from_this_person_to_poi'
p1974
I0
sg33
I171
sS'missing_from_poi_to_this_person'
p1975
I0
sg35
I126027
sg36
I275101
sS'missing_deferred_income'
p1976
I1
sg38
I1086821
sS'missing_total_payments'
p1977
I0
sg40
I850010
sS'missing_salary'
p1978
I0
sS'missing_restricted_stock_deferred'
p1979
I1
sS'missing_restricted_stock'
p1980
I0
sS'missing_shared_receipt_with_poi'
p1981
I0
sS'missing_long_term_incentive'
p1982
I0
ssS'LOCKHART EUGENE E'
p1983
(dp1984
g3
g5
sg4
g5
sS'missing_bonus'
p1985
I1
sS'missing_director_fees'
p1986
I1
sg8
g5
sg9
g50
sg10
I00
sg11
g5
sg12
g5
sg14
g5
sg15
g5
sS'missing_from_messages'
p1987
I1
sS'missing_total_stock_value'
p1988
I1
sS'missing_exercised_stock_options'
p1989
I1
sg19
g5
sS'missing_deferral_payments'
p1990
I1
sg21
g5
sS'missing_to_messages'
p1991
I1
sg23
g5
sg24
g5
sg25
g5
sS'missing_loan_advances'
p1992
I1
sS'missing_expenses'
p1993
I1
sg28
g5
sg29
g5
sg30
g5
sS'missing_other'
p1994
I1
sS'missing_from_this_person_to_poi'
p1995
I1
sg33
g5
sS'missing_from_poi_to_this_person'
p1996
I1
sg35
g5
sg36
g5
sS'missing_deferred_income'
p1997
I1
sg38
g5
sS'missing_total_payments'
p1998
I1
sg40
g5
sS'missing_salary'
p1999
I1
sS'missing_restricted_stock_deferred'
p2000
I1
sS'missing_restricted_stock'
p2001
I1
sS'missing_shared_receipt_with_poi'
p2002
I1
sS'missing_long_term_incentive'
p2003
I1
ssS'COX DAVID'
p2004
(dp2005
g3
I102
sg4
g5
sS'missing_bonus'
p2006
I0
sS'missing_director_fees'
p2007
I1
sg8
I27861
sg9
F0.02962962962962963
sg10
I00
sg11
g5
sg12
S'chip.cox@enron.com'
p2008
sg14
I0
sg15
I-41250
sS'missing_from_messages'
p2009
I0
sS'missing_total_stock_value'
p2010
I0
sS'missing_exercised_stock_options'
p2011
I0
sg19
g5
sS'missing_deferral_payments'
p2012
I1
sg21
I71
sS'missing_to_messages'
p2013
I0
sg23
g5
sg24
I33
sg25
I494
sS'missing_loan_advances'
p2014
I1
sS'missing_expenses'
p2015
I0
sg28
g5
sg29
I800000
sg30
I495633
sS'missing_other'
p2016
I0
sS'missing_from_this_person_to_poi'
p2017
I0
sg33
I4
sS'missing_from_poi_to_this_person'
p2018
I0
sg35
I378082
sg36
I314288
sS'missing_deferred_income'
p2019
I0
sg38
I1101393
sS'missing_total_payments'
p2020
I0
sg40
I117551
sS'missing_salary'
p2021
I0
sS'missing_restricted_stock_deferred'
p2022
I1
sS'missing_restricted_stock'
p2023
I0
sS'missing_shared_receipt_with_poi'
p2024
I0
sS'missing_long_term_incentive'
p2025
I1
ssS'OVERDYKE JR JERE C'
p2026
(dp2027
g3
g5
sg4
g5
sS'missing_bonus'
p2028
I1
sS'missing_director_fees'
p2029
I1
sg8
I18834
sg9
g50
sg10
I00
sg11
I135836
sg12
S'jere.overdyke@enron.com'
p2030
sg14
g5
sg15
g5
sS'missing_from_messages'
p2031
I1
sS'missing_total_stock_value'
p2032
I0
sS'missing_exercised_stock_options'
p2033
I0
sg19
g5
sS'missing_deferral_payments'
p2034
I1
sg21
g5
sS'missing_to_messages'
p2035
I1
sg23
g5
sg24
g5
sg25
I176
sS'missing_loan_advances'
p2036
I1
sS'missing_expenses'
p2037
I0
sg28
g5
sg29
g5
sg30
I7307594
sS'missing_other'
p2038
I0
sS'missing_from_this_person_to_poi'
p2039
I1
sg33
g5
sS'missing_from_poi_to_this_person'
p2040
I1
sg35
I2041016
sg36
I94941
sS'missing_deferred_income'
p2041
I1
sg38
I249787
sS'missing_total_payments'
p2042
I0
sg40
I5266578
sS'missing_salary'
p2043
I0
sS'missing_restricted_stock_deferred'
p2044
I1
sS'missing_restricted_stock'
p2045
I0
sS'missing_shared_receipt_with_poi'
p2046
I1
sS'missing_long_term_incentive'
p2047
I0
ssS'PEREIRA PAULO V. FERRAZ'
p2048
(dp2049
g3
g5
sg4
g5
sS'missing_bonus'
p2050
I1
sS'missing_director_fees'
p2051
I0
sg8
I27942
sg9
g50
sg10
I00
sg11
g5
sg12
g5
sg14
g5
sg15
I-101250
sS'missing_from_messages'
p2052
I1
sS'missing_total_stock_value'
p2053
I1
sS'missing_exercised_stock_options'
p2054
I1
sg19
g5
sS'missing_deferral_payments'
p2055
I1
sg21
g5
sS'missing_to_messages'
p2056
I1
sg23
g5
sg24
g5
sg25
g5
sS'missing_loan_advances'
p2057
I1
sS'missing_expenses'
p2058
I0
sg28
I101250
sg29
g5
sg30
g5
sS'missing_other'
p2059
I1
sS'missing_from_this_person_to_poi'
p2060
I1
sg33
g5
sS'missing_from_poi_to_this_person'
p2061
I1
sg35
g5
sg36
g5
sS'missing_deferred_income'
p2062
I0
sg38
I27942
sS'missing_total_payments'
p2063
I0
sg40
g5
sS'missing_salary'
p2064
I1
sS'missing_restricted_stock_deferred'
p2065
I1
sS'missing_restricted_stock'
p2066
I1
sS'missing_shared_receipt_with_poi'
p2067
I1
sS'missing_long_term_incentive'
p2068
I1
ssS'STABLER FRANK'
p2069
(dp2070
g3
g5
sg4
g5
sS'missing_bonus'
p2071
I0
sS'missing_director_fees'
p2072
I1
sg8
I16514
sg9
g50
sg10
I00
sg11
g5
sg12
S'frank.stabler@enron.com'
p2073
sg14
g5
sg15
g5
sS'missing_from_messages'
p2074
I1
sS'missing_total_stock_value'
p2075
I0
sS'missing_exercised_stock_options'
p2076
I1
sg19
g5
sS'missing_deferral_payments'
p2077
I1
sg21
g5
sS'missing_to_messages'
p2078
I1
sg23
g5
sg24
g5
sg25
I356071
sS'missing_loan_advances'
p2079
I1
sS'missing_expenses'
p2080
I0
sg28
g5
sg29
I500000
sg30
I511734
sS'missing_other'
p2081
I0
sS'missing_from_this_person_to_poi'
p2082
I1
sg33
g5
sS'missing_from_poi_to_this_person'
p2083
I1
sg35
I511734
sg36
I239502
sS'missing_deferred_income'
p2084
I1
sg38
I1112087
sS'missing_total_payments'
p2085
I0
sg40
g5
sS'missing_salary'
p2086
I0
sS'missing_restricted_stock_deferred'
p2087
I1
sS'missing_restricted_stock'
p2088
I0
sS'missing_shared_receipt_with_poi'
p2089
I1
sS'missing_long_term_incentive'
p2090
I1
ssS'SKILLING JEFFREY K'
p2091
(dp2092
g3
I3627
sg4
g5
sS'missing_bonus'
p2093
I0
sS'missing_director_fees'
p2094
I1
sg8
I29336
sg9
F0.03159303882195449
sg10
I01
sg11
I1920000
sg12
S'jeff.skilling@enron.com'
p2095
sg14
I88
sg15
g5
sS'missing_from_messages'
p2096
I0
sS'missing_total_stock_value'
p2097
I0
sS'missing_exercised_stock_options'
p2098
I0
sg19
g5
sS'missing_deferral_payments'
p2099
I1
sg21
I2042
sS'missing_to_messages'
p2100
I0
sg23
g5
sg24
I108
sg25
I22122
sS'missing_loan_advances'
p2101
I1
sS'missing_expenses'
p2102
I0
sg28
g5
sg29
I5600000
sg30
I26093672
sS'missing_other'
p2103
I0
sS'missing_from_this_person_to_poi'
p2104
I0
sg33
I30
sS'missing_from_poi_to_this_person'
p2105
I0
sg35
I6843672
sg36
I1111258
sS'missing_deferred_income'
p2106
I1
sg38
I8682716
sS'missing_total_payments'
p2107
I0
sg40
I19250000
sS'missing_salary'
p2108
I0
sS'missing_restricted_stock_deferred'
p2109
I1
sS'missing_restricted_stock'
p2110
I0
sS'missing_shared_receipt_with_poi'
p2111
I0
sS'missing_long_term_incentive'
p2112
I0
ssS'BLAKE JR. NORMAN P'
p2113
(dp2114
g3
g5
sg4
g5
sS'missing_bonus'
p2115
I1
sS'missing_director_fees'
p2116
I0
sg8
I1279
sg9
g50
sg10
I00
sg11
g5
sg12
g5
sg14
g5
sg15
I-113784
sS'missing_from_messages'
p2117
I1
sS'missing_total_stock_value'
p2118
I1
sS'missing_exercised_stock_options'
p2119
I1
sg19
g5
sS'missing_deferral_payments'
p2120
I1
sg21
g5
sS'missing_to_messages'
p2121
I1
sg23
g5
sg24
g5
sg25
g5
sS'missing_loan_advances'
p2122
I1
sS'missing_expenses'
p2123
I0
sg28
I113784
sg29
g5
sg30
g5
sS'missing_other'
p2124
I1
sS'missing_from_this_person_to_poi'
p2125
I1
sg33
g5
sS'missing_from_poi_to_this_person'
p2126
I1
sg35
g5
sg36
g5
sS'missing_deferred_income'
p2127
I0
sg38
I1279
sS'missing_total_payments'
p2128
I0
sg40
g5
sS'missing_salary'
p2129
I1
sS'missing_restricted_stock_deferred'
p2130
I1
sS'missing_restricted_stock'
p2131
I1
sS'missing_shared_receipt_with_poi'
p2132
I1
sS'missing_long_term_incentive'
p2133
I1
ssS'SHERRICK JEFFREY B'
p2134
(dp2135
g3
I613
sg4
g5
sS'missing_bonus'
p2136
I1
sS'missing_director_fees'
p2137
I1
sg8
g5
sg9
F0.08934169278996865
sg10
I00
sg11
g5
sg12
S'jeffrey.sherrick@enron.com'
p2138
sg14
I39
sg15
g5
sS'missing_from_messages'
p2139
I0
sS'missing_total_stock_value'
p2140
I0
sS'missing_exercised_stock_options'
p2141
I0
sg19
g5
sS'missing_deferral_payments'
p2142
I1
sg21
I583
sS'missing_to_messages'
p2143
I0
sg23
g5
sg24
I25
sg25
g5
sS'missing_loan_advances'
p2144
I1
sS'missing_expenses'
p2145
I1
sg28
g5
sg29
g5
sg30
I1832468
sS'missing_other'
p2146
I1
sS'missing_from_this_person_to_poi'
p2147
I0
sg33
I18
sS'missing_from_poi_to_this_person'
p2148
I0
sg35
I405999
sg36
g5
sS'missing_deferred_income'
p2149
I1
sg38
g5
sS'missing_total_payments'
p2150
I1
sg40
I1426469
sS'missing_salary'
p2151
I1
sS'missing_restricted_stock_deferred'
p2152
I1
sS'missing_restricted_stock'
p2153
I0
sS'missing_shared_receipt_with_poi'
p2154
I0
sS'missing_long_term_incentive'
p2155
I1
ssS'PRENTICE JAMES'
p2156
(dp2157
g3
g5
sg4
I564348
sS'missing_bonus'
p2158
I1
sS'missing_director_fees'
p2159
I1
sg8
g5
sg9
g50
sg10
I00
sg11
g5
sg12
S'james.prentice@enron.com'
p2160
sg14
g5
sg15
g5
sS'missing_from_messages'
p2161
I1
sS'missing_total_stock_value'
p2162
I0
sS'missing_exercised_stock_options'
p2163
I0
sg19
g5
sS'missing_deferral_payments'
p2164
I0
sg21
g5
sS'missing_to_messages'
p2165
I1
sg23
g5
sg24
g5
sg25
g5
sS'missing_loan_advances'
p2166
I1
sS'missing_expenses'
p2167
I1
sg28
g5
sg29
g5
sg30
I1095040
sS'missing_other'
p2168
I1
sS'missing_from_this_person_to_poi'
p2169
I1
sg33
g5
sS'missing_from_poi_to_this_person'
p2170
I1
sg35
I208809
sg36
g5
sS'missing_deferred_income'
p2171
I1
sg38
I564348
sS'missing_total_payments'
p2172
I0
sg40
I886231
sS'missing_salary'
p2173
I1
sS'missing_restricted_stock_deferred'
p2174
I1
sS'missing_restricted_stock'
p2175
I0
sS'missing_shared_receipt_with_poi'
p2176
I1
sS'missing_long_term_incentive'
p2177
I1
ssS'GRAY RODNEY'
p2178
(dp2179
g3
g5
sg4
I93585
sS'missing_bonus'
p2180
I1
sS'missing_director_fees'
p2181
I1
sg8
g5
sg9
g50
sg10
I00
sg11
I365625
sg12
g5
sg14
g5
sg15
g5
sS'missing_from_messages'
p2182
I1
sS'missing_total_stock_value'
p2183
I1
sS'missing_exercised_stock_options'
p2184
I1
sg19
g5
sS'missing_deferral_payments'
p2185
I0
sg21
g5
sS'missing_to_messages'
p2186
I1
sg23
g5
sg24
g5
sg25
I680833
sS'missing_loan_advances'
p2187
I1
sS'missing_expenses'
p2188
I1
sg28
g5
sg29
g5
sg30
g5
sS'missing_other'
p2189
I0
sS'missing_from_this_person_to_poi'
p2190
I1
sg33
g5
sS'missing_from_poi_to_this_person'
p2191
I1
sg35
g5
sg36
I6615
sS'missing_deferred_income'
p2192
I1
sg38
I1146658
sS'missing_total_payments'
p2193
I0
sg40
g5
sS'missing_salary'
p2194
I0
sS'missing_restricted_stock_deferred'
p2195
I1
sS'missing_restricted_stock'
p2196
I1
sS'missing_shared_receipt_with_poi'
p2197
I1
sS'missing_long_term_incentive'
p2198
I0
ssS'UMANOFF ADAM S'
p2199
(dp2200
g3
I111
sg4
g5
sS'missing_bonus'
p2201
I0
sS'missing_director_fees'
p2202
I1
sg8
I53122
sg9
F0.09302325581395349
sg10
I00
sg11
g5
sg12
S'adam.umanoff@enron.com'
p2203
sg14
I12
sg15
g5
sS'missing_from_messages'
p2204
I0
sS'missing_total_stock_value'
p2205
I1
sS'missing_exercised_stock_options'
p2206
I1
sg19
g5
sS'missing_deferral_payments'
p2207
I1
sg21
I41
sS'missing_to_messages'
p2208
I0
sg23
g5
sg24
I18
sg25
g5
sS'missing_loan_advances'
p2209
I1
sS'missing_expenses'
p2210
I0
sg28
g5
sg29
I788750
sg30
g5
sS'missing_other'
p2211
I1
sS'missing_from_this_person_to_poi'
p2212
I0
sg33
I0
sS'missing_from_poi_to_this_person'
p2213
I0
sg35
g5
sg36
I288589
sS'missing_deferred_income'
p2214
I1
sg38
I1130461
sS'missing_total_payments'
p2215
I0
sg40
g5
sS'missing_salary'
p2216
I0
sS'missing_restricted_stock_deferred'
p2217
I1
sS'missing_restricted_stock'
p2218
I1
sS'missing_shared_receipt_with_poi'
p2219
I0
sS'missing_long_term_incentive'
p2220
I1
ssS'KEAN STEVEN J'
p2221
(dp2222
g3
I12754
sg4
g5
sS'missing_bonus'
p2223
I0
sS'missing_director_fees'
p2224
I1
sg8
I41953
sg9
F0.02700763593501768
sg10
I00
sg11
I300000
sg12
S'steven.kean@enron.com'
p2225
sg14
I140
sg15
g5
sS'missing_from_messages'
p2226
I0
sS'missing_total_stock_value'
p2227
I0
sS'missing_exercised_stock_options'
p2228
I0
sg19
g5
sS'missing_deferral_payments'
p2229
I1
sg21
I3639
sS'missing_to_messages'
p2230
I0
sg23
g5
sg24
I6759
sg25
I1231
sS'missing_loan_advances'
p2231
I1
sS'missing_expenses'
p2232
I0
sg28
g5
sg29
I1000000
sg30
I6153642
sS'missing_other'
p2233
I0
sS'missing_from_this_person_to_poi'
p2234
I0
sg33
I387
sS'missing_from_poi_to_this_person'
p2235
I0
sg35
I4131594
sg36
I404338
sS'missing_deferred_income'
p2236
I1
sg38
I1747522
sS'missing_total_payments'
p2237
I0
sg40
I2022048
sS'missing_salary'
p2238
I0
sS'missing_restricted_stock_deferred'
p2239
I1
sS'missing_restricted_stock'
p2240
I0
sS'missing_shared_receipt_with_poi'
p2241
I0
sS'missing_long_term_incentive'
p2242
I0
ssS'FOWLER PEGGY'
p2243
(dp2244
g3
I517
sg4
g5
sS'missing_bonus'
p2245
I1
sS'missing_director_fees'
p2246
I1
sg8
g5
sg9
F0.0
sg10
I00
sg11
g5
sg12
S'kulvinder.fowler@enron.com'
p2247
sg14
I0
sg15
g5
sS'missing_from_messages'
p2248
I0
sS'missing_total_stock_value'
p2249
I0
sS'missing_exercised_stock_options'
p2250
I0
sg19
g5
sS'missing_deferral_payments'
p2251
I1
sg21
I10
sS'missing_to_messages'
p2252
I0
sg23
g5
sg24
I36
sg25
g5
sS'missing_loan_advances'
p2253
I1
sS'missing_expenses'
p2254
I1
sg28
g5
sg29
g5
sg30
I1884748
sS'missing_other'
p2255
I1
sS'missing_from_this_person_to_poi'
p2256
I0
sg33
I0
sS'missing_from_poi_to_this_person'
p2257
I0
sg35
I560170
sg36
g5
sS'missing_deferred_income'
p2258
I1
sg38
g5
sS'missing_total_payments'
p2259
I1
sg40
I1324578
sS'missing_salary'
p2260
I1
sS'missing_restricted_stock_deferred'
p2261
I1
sS'missing_restricted_stock'
p2262
I0
sS'missing_shared_receipt_with_poi'
p2263
I0
sS'missing_long_term_incentive'
p2264
I1
ssS'WASAFF GEORGE'
p2265
(dp2266
g3
I400
sg4
I831299
sS'missing_bonus'
p2267
I0
sS'missing_director_fees'
p2268
I1
sg8
g5
sg9
F0.06744186046511629
sg10
I00
sg11
I200000
sg12
S'george.wasaff@enron.com'
p2269
sg14
I22
sg15
I-583325
sS'missing_from_messages'
p2270
I0
sS'missing_total_stock_value'
p2271
I0
sS'missing_exercised_stock_options'
p2272
I0
sg19
g5
sS'missing_deferral_payments'
p2273
I0
sg21
I337
sS'missing_to_messages'
p2274
I0
sg23
g5
sg24
I30
sg25
I1425
sS'missing_loan_advances'
p2275
I1
sS'missing_expenses'
p2276
I1
sg28
g5
sg29
I325000
sg30
I2056427
sS'missing_other'
p2277
I0
sS'missing_from_this_person_to_poi'
p2278
I0
sg33
I7
sS'missing_from_poi_to_this_person'
p2279
I0
sg35
I388167
sg36
I259996
sS'missing_deferred_income'
p2280
I0
sg38
I1034395
sS'missing_total_payments'
p2281
I0
sg40
I1668260
sS'missing_salary'
p2282
I0
sS'missing_restricted_stock_deferred'
p2283
I1
sS'missing_restricted_stock'
p2284
I0
sS'missing_shared_receipt_with_poi'
p2285
I0
sS'missing_long_term_incentive'
p2286
I0
ssS'WHITE JR THOMAS E'
p2287
(dp2288
g3
g5
sg4
g5
sS'missing_bonus'
p2289
I0
sS'missing_director_fees'
p2290
I1
sg8
I81353
sg9
g50
sg10
I00
sg11
g5
sg12
S'thomas.white@enron.com'
p2291
sg14
g5
sg15
g5
sS'missing_from_messages'
p2292
I1
sS'missing_total_stock_value'
p2293
I0
sS'missing_exercised_stock_options'
p2294
I0
sg19
g5
sS'missing_deferral_payments'
p2295
I1
sg21
g5
sS'missing_to_messages'
p2296
I1
sg23
g5
sg24
g5
sg25
I1085463
sS'missing_loan_advances'
p2297
I1
sS'missing_expenses'
p2298
I0
sg28
g5
sg29
I450000
sg30
I15144123
sS'missing_other'
p2299
I0
sS'missing_from_this_person_to_poi'
p2300
I1
sg33
g5
sS'missing_from_poi_to_this_person'
p2301
I1
sg35
I13847074
sg36
I317543
sS'missing_deferred_income'
p2302
I1
sg38
I1934359
sS'missing_total_payments'
p2303
I0
sg40
I1297049
sS'missing_salary'
p2304
I0
sS'missing_restricted_stock_deferred'
p2305
I1
sS'missing_restricted_stock'
p2306
I0
sS'missing_shared_receipt_with_poi'
p2307
I1
sS'missing_long_term_incentive'
p2308
I1
ssS'CHRISTODOULOU DIOMEDES'
p2309
(dp2310
g3
g5
sg4
g5
sS'missing_bonus'
p2311
I1
sS'missing_director_fees'
p2312
I1
sg8
g5
sg9
g50
sg10
I00
sg11
g5
sg12
S'diomedes.christodoulou@enron.com'
p2313
sg14
g5
sg15
g5
sS'missing_from_messages'
p2314
I1
sS'missing_total_stock_value'
p2315
I0
sS'missing_exercised_stock_options'
p2316
I0
sg19
g5
sS'missing_deferral_payments'
p2317
I1
sg21
g5
sS'missing_to_messages'
p2318
I1
sg23
g5
sg24
g5
sg25
g5
sS'missing_loan_advances'
p2319
I1
sS'missing_expenses'
p2320
I1
sg28
g5
sg29
g5
sg30
I6077885
sS'missing_other'
p2321
I1
sS'missing_from_this_person_to_poi'
p2322
I1
sg33
g5
sS'missing_from_poi_to_this_person'
p2323
I1
sg35
I950730
sg36
g5
sS'missing_deferred_income'
p2324
I1
sg38
g5
sS'missing_total_payments'
p2325
I1
sg40
I5127155
sS'missing_salary'
p2326
I1
sS'missing_restricted_stock_deferred'
p2327
I1
sS'missing_restricted_stock'
p2328
I0
sS'missing_shared_receipt_with_poi'
p2329
I1
sS'missing_long_term_incentive'
p2330
I1
ssS'ALLEN PHILLIP K'
p2331
(dp2332
g3
I2902
sg4
I2869717
sS'missing_bonus'
p2333
I0
sS'missing_director_fees'
p2334
I1
sg8
I13868
sg9
F0.0219737100255052
sg10
I00
sg11
I304805
sg12
S'phillip.allen@enron.com'
p2335
sg14
I47
sg15
I-3081055
sS'missing_from_messages'
p2336
I0
sS'missing_total_stock_value'
p2337
I0
sS'missing_exercised_stock_options'
p2338
I0
sg19
I-126027
sS'missing_deferral_payments'
p2339
I0
sg21
I1407
sS'missing_to_messages'
p2340
I0
sg23
g5
sg24
I2195
sg25
I152
sS'missing_loan_advances'
p2341
I1
sS'missing_expenses'
p2342
I0
sg28
g5
sg29
I4175000
sg30
I1729541
sS'missing_other'
p2343
I0
sS'missing_from_this_person_to_poi'
p2344
I0
sg33
I65
sS'missing_from_poi_to_this_person'
p2345
I0
sg35
I126027
sg36
I201955
sS'missing_deferred_income'
p2346
I0
sg38
I4484442
sS'missing_total_payments'
p2347
I0
sg40
I1729541
sS'missing_salary'
p2348
I0
sS'missing_restricted_stock_deferred'
p2349
I0
sS'missing_restricted_stock'
p2350
I0
sS'missing_shared_receipt_with_poi'
p2351
I0
sS'missing_long_term_incentive'
p2352
I0
ssS'SHARP VICTORIA T'
p2353
(dp2354
g3
I3136
sg4
I187469
sS'missing_bonus'
p2355
I0
sS'missing_director_fees'
p2356
I1
sg8
I116337
sg9
F0.009168704156479218
sg10
I00
sg11
I422158
sg12
S'vicki.sharp@enron.com'
p2357
sg14
I24
sg15
g5
sS'missing_from_messages'
p2358
I0
sS'missing_total_stock_value'
p2359
I0
sS'missing_exercised_stock_options'
p2360
I0
sg19
g5
sS'missing_deferral_payments'
p2361
I0
sg21
I2477
sS'missing_to_messages'
p2362
I0
sg23
g5
sg24
I136
sg25
I2401
sS'missing_loan_advances'
p2363
I1
sS'missing_expenses'
p2364
I0
sg28
g5
sg29
I600000
sg30
I494136
sS'missing_other'
p2365
I0
sS'missing_from_this_person_to_poi'
p2366
I0
sg33
I6
sS'missing_from_poi_to_this_person'
p2367
I0
sg35
I213063
sg36
I248146
sS'missing_deferred_income'
p2368
I1
sg38
I1576511
sS'missing_total_payments'
p2369
I0
sg40
I281073
sS'missing_salary'
p2370
I0
sS'missing_restricted_stock_deferred'
p2371
I1
sS'missing_restricted_stock'
p2372
I0
sS'missing_shared_receipt_with_poi'
p2373
I0
sS'missing_long_term_incentive'
p2374
I0
ssS'JAEDICKE ROBERT'
p2375
(dp2376
g3
g5
sg4
g5
sS'missing_bonus'
p2377
I1
sS'missing_director_fees'
p2378
I0
sg8
g5
sg9
g50
sg10
I00
sg11
g5
sg12
g5
sg14
g5
sg15
I-25000
sS'missing_from_messages'
p2379
I1
sS'missing_total_stock_value'
p2380
I0
sS'missing_exercised_stock_options'
p2381
I0
sg19
I-44093
sS'missing_deferral_payments'
p2382
I1
sg21
g5
sS'missing_to_messages'
p2383
I1
sg23
g5
sg24
g5
sg25
g5
sS'missing_loan_advances'
p2384
I1
sS'missing_expenses'
p2385
I1
sg28
I108750
sg29
g5
sg30
I431750
sS'missing_other'
p2386
I1
sS'missing_from_this_person_to_poi'
p2387
I1
sg33
g5
sS'missing_from_poi_to_this_person'
p2388
I1
sg35
I44093
sg36
g5
sS'missing_deferred_income'
p2389
I0
sg38
I83750
sS'missing_total_payments'
p2390
I0
sg40
I431750
sS'missing_salary'
p2391
I1
sS'missing_restricted_stock_deferred'
p2392
I0
sS'missing_restricted_stock'
p2393
I0
sS'missing_shared_receipt_with_poi'
p2394
I1
sS'missing_long_term_incentive'
p2395
I1
ssS'WINOKUR JR. HERBERT S'
p2396
(dp2397
g3
g5
sg4
g5
sS'missing_bonus'
p2398
I1
sS'missing_director_fees'
p2399
I0
sg8
I1413
sg9
g50
sg10
I00
sg11
g5
sg12
g5
sg14
g5
sg15
I-25000
sS'missing_from_messages'
p2400
I1
sS'missing_total_stock_value'
p2401
I1
sS'missing_exercised_stock_options'
p2402
I1
sg19
g5
sS'missing_deferral_payments'
p2403
I1
sg21
g5
sS'missing_to_messages'
p2404
I1
sg23
g5
sg24
g5
sg25
g5
sS'missing_loan_advances'
p2405
I1
sS'missing_expenses'
p2406
I0
sg28
I108579
sg29
g5
sg30
g5
sS'missing_other'
p2407
I1
sS'missing_from_this_person_to_poi'
p2408
I1
sg33
g5
sS'missing_from_poi_to_this_person'
p2409
I1
sg35
g5
sg36
g5
sS'missing_deferred_income'
p2410
I0
sg38
I84992
sS'missing_total_payments'
p2411
I0
sg40
g5
sS'missing_salary'
p2412
I1
sS'missing_restricted_stock_deferred'
p2413
I1
sS'missing_restricted_stock'
p2414
I1
sS'missing_shared_receipt_with_poi'
p2415
I1
sS'missing_long_term_incentive'
p2416
I1
ssS'BROWN MICHAEL'
p2417
(dp2418
g3
I1486
sg4
g5
sS'missing_bonus'
p2419
I1
sS'missing_director_fees'
p2420
I1
sg8
I49288
sg9
F0.0091683038637852
sg10
I00
sg11
g5
sg12
S'michael.brown@enron.com'
p2421
sg14
I13
sg15
g5
sS'missing_from_messages'
p2422
I0
sS'missing_total_stock_value'
p2423
I1
sS'missing_exercised_stock_options'
p2424
I1
sg19
g5
sS'missing_deferral_payments'
p2425
I1
sg21
I761
sS'missing_to_messages'
p2426
I0
sg23
g5
sg24
I41
sg25
g5
sS'missing_loan_advances'
p2427
I1
sS'missing_expenses'
p2428
I0
sg28
g5
sg29
g5
sg30
g5
sS'missing_other'
p2429
I1
sS'missing_from_this_person_to_poi'
p2430
I0
sg33
I1
sS'missing_from_poi_to_this_person'
p2431
I0
sg35
g5
sg36
g5
sS'missing_deferred_income'
p2432
I1
sg38
I49288
sS'missing_total_payments'
p2433
I0
sg40
g5
sS'missing_salary'
p2434
I1
sS'missing_restricted_stock_deferred'
p2435
I1
sS'missing_restricted_stock'
p2436
I1
sS'missing_shared_receipt_with_poi'
p2437
I0
sS'missing_long_term_incentive'
p2438
I1
ssS'MCCLELLAN GEORGE'
p2439
(dp2440
g3
I1744
sg4
g5
sS'missing_bonus'
p2441
I0
sS'missing_director_fees'
p2442
I1
sg8
I228763
sg9
F0.029001673173452314
sg10
I00
sg11
g5
sg12
S'george.mcclellan@enron.com'
p2443
sg14
I52
sg15
I-125000
sS'missing_from_messages'
p2444
I0
sS'missing_total_stock_value'
p2445
I0
sS'missing_exercised_stock_options'
p2446
I0
sg19
g5
sS'missing_deferral_payments'
p2447
I1
sg21
I1469
sS'missing_to_messages'
p2448
I0
sg23
g5
sg24
I49
sg25
I51587
sS'missing_loan_advances'
p2449
I1
sS'missing_expenses'
p2450
I0
sg28
g5
sg29
I900000
sg30
I947861
sS'missing_other'
p2451
I0
sS'missing_from_this_person_to_poi'
p2452
I0
sg33
I0
sS'missing_from_poi_to_this_person'
p2453
I0
sg35
I441096
sg36
I263413
sS'missing_deferred_income'
p2454
I0
sg38
I1318763
sS'missing_total_payments'
p2455
I0
sg40
I506765
sS'missing_salary'
p2456
I0
sS'missing_restricted_stock_deferred'
p2457
I1
sS'missing_restricted_stock'
p2458
I0
sS'missing_shared_receipt_with_poi'
p2459
I0
sS'missing_long_term_incentive'
p2460
I1
ssS'HUGHES JAMES A'
p2461
(dp2462
g3
I719
sg4
g5
sS'missing_bonus'
p2463
I1
sS'missing_director_fees'
p2464
I1
sg8
g5
sg9
F0.05312084993359894
sg10
I00
sg11
g5
sg12
S'james.hughes@enron.com'
p2465
sg14
I35
sg15
g5
sS'missing_from_messages'
p2466
I0
sS'missing_total_stock_value'
p2467
I0
sS'missing_exercised_stock_options'
p2468
I0
sg19
g5
sS'missing_deferral_payments'
p2469
I1
sg21
I589
sS'missing_to_messages'
p2470
I0
sg23
g5
sg24
I34
sg25
g5
sS'missing_loan_advances'
p2471
I1
sS'missing_expenses'
p2472
I1
sg28
g5
sg29
g5
sg30
I1118394
sS'missing_other'
p2473
I1
sS'missing_from_this_person_to_poi'
p2474
I0
sg33
I5
sS'missing_from_poi_to_this_person'
p2475
I0
sg35
I363428
sg36
g5
sS'missing_deferred_income'
p2476
I1
sg38
g5
sS'missing_total_payments'
p2477
I1
sg40
I754966
sS'missing_salary'
p2478
I1
sS'missing_restricted_stock_deferred'
p2479
I1
sS'missing_restricted_stock'
p2480
I0
sS'missing_shared_receipt_with_poi'
p2481
I0
sS'missing_long_term_incentive'
p2482
I1
ssS'REYNOLDS LAWRENCE'
p2483
(dp2484
g3
g5
sg4
I51365
sS'missing_bonus'
p2485
I0
sS'missing_director_fees'
p2486
I1
sg8
I8409
sg9
g50
sg10
I00
sg11
I156250
sg12
g5
sg14
g5
sg15
I-200000
sS'missing_from_messages'
p2487
I1
sS'missing_total_stock_value'
p2488
I0
sS'missing_exercised_stock_options'
p2489
I0
sg19
I-140264
sS'missing_deferral_payments'
p2490
I0
sg21
g5
sS'missing_to_messages'
p2491
I1
sg23
g5
sg24
g5
sg25
I202052
sS'missing_loan_advances'
p2492
I1
sS'missing_expenses'
p2493
I0
sg28
g5
sg29
I100000
sg30
I4221891
sS'missing_other'
p2494
I0
sS'missing_from_this_person_to_poi'
p2495
I1
sg33
g5
sS'missing_from_poi_to_this_person'
p2496
I1
sg35
I201483
sg36
I76399
sS'missing_deferred_income'
p2497
I0
sg38
I394475
sS'missing_total_payments'
p2498
I0
sg40
I4160672
sS'missing_salary'
p2499
I0
sS'missing_restricted_stock_deferred'
p2500
I0
sS'missing_restricted_stock'
p2501
I0
sS'missing_shared_receipt_with_poi'
p2502
I1
sS'missing_long_term_incentive'
p2503
I0
ssS'PICKERING MARK R'
p2504
(dp2505
g3
I898
sg4
g5
sS'missing_bonus'
p2506
I0
sS'missing_director_fees'
p2507
I1
sg8
I31653
sg9
F0.007253886010362694
sg10
I00
sg11
g5
sg12
S'mark.pickering@enron.com'
p2508
sg14
I7
sg15
g5
sS'missing_from_messages'
p2509
I0
sS'missing_total_stock_value'
p2510
I0
sS'missing_exercised_stock_options'
p2511
I0
sg19
g5
sS'missing_deferral_payments'
p2512
I1
sg21
I728
sS'missing_to_messages'
p2513
I0
sg23
I400000
sg24
I67
sg25
g5
sS'missing_loan_advances'
p2514
I0
sS'missing_expenses'
p2515
I0
sg28
g5
sg29
I300000
sg30
I28798
sS'missing_other'
p2516
I1
sS'missing_from_this_person_to_poi'
p2517
I0
sg33
I0
sS'missing_from_poi_to_this_person'
p2518
I0
sg35
g5
sg36
I655037
sS'missing_deferred_income'
p2519
I1
sg38
I1386690
sS'missing_total_payments'
p2520
I0
sg40
I28798
sS'missing_salary'
p2521
I0
sS'missing_restricted_stock_deferred'
p2522
I1
sS'missing_restricted_stock'
p2523
I1
sS'missing_shared_receipt_with_poi'
p2524
I0
sS'missing_long_term_incentive'
p2525
I1
ssS'BHATNAGAR SANJAY'
p2526
(dp2527
g3
I523
sg4
g5
sS'missing_bonus'
p2528
I1
sS'missing_director_fees'
p2529
I0
sg8
g5
sg9
F0.0018115942028985507
sg10
I00
sg11
g5
sg12
S'sanjay.bhatnagar@enron.com'
p2530
sg14
I0
sg15
g5
sS'missing_from_messages'
p2531
I0
sS'missing_total_stock_value'
p2532
I1
sS'missing_exercised_stock_options'
p2533
I0
sg19
I15456290
sS'missing_deferral_payments'
p2534
I1
sg21
I463
sS'missing_to_messages'
p2535
I0
sg23
g5
sg24
I29
sg25
I137864
sS'missing_loan_advances'
p2536
I1
sS'missing_expenses'
p2537
I1
sg28
I137864
sg29
g5
sS'total_stock_value'
p2538
S'NaN'
p2539
sS'missing_other'
p2540
I0
sS'missing_from_this_person_to_poi'
p2541
I0
sg33
I1
sS'missing_from_poi_to_this_person'
p2542
I0
sg35
I-2604490
sg36
g5
sS'missing_deferred_income'
p2543
I1
sg38
I15456290
sS'missing_total_payments'
p2544
I0
sg40
I2604490
sS'missing_salary'
p2545
I1
sS'missing_restricted_stock_deferred'
p2546
I0
sS'missing_restricted_stock'
p2547
I0
sS'missing_shared_receipt_with_poi'
p2548
I0
sS'missing_long_term_incentive'
p2549
I1
ssS'CARTER REBECCA C'
p2550
(dp2551
g3
I312
sg4
g5
sS'missing_bonus'
p2552
I0
sS'missing_director_fees'
p2553
I1
sg8
g5
sg9
F0.11009174311926606
sg10
I00
sg11
I75000
sg12
S'rebecca.carter@enron.com'
p2554
sg14
I29
sg15
I-159792
sS'missing_from_messages'
p2555
I0
sS'missing_total_stock_value'
p2556
I1
sS'missing_exercised_stock_options'
p2557
I1
sg19
I-307301
sS'missing_deferral_payments'
p2558
I1
sg21
I196
sS'missing_to_messages'
p2559
I0
sg23
g5
sg24
I15
sg25
I540
sS'missing_loan_advances'
p2560
I1
sS'missing_expenses'
p2561
I1
sg28
g5
sg29
I300000
sg30
g5
sS'missing_other'
p2562
I0
sS'missing_from_this_person_to_poi'
p2563
I0
sg33
I7
sS'missing_from_poi_to_this_person'
p2564
I0
sg35
I307301
sg36
I261809
sS'missing_deferred_income'
p2565
I0
sg38
I477557
sS'missing_total_payments'
p2566
I0
sg40
g5
sS'missing_salary'
p2567
I0
sS'missing_restricted_stock_deferred'
p2568
I0
sS'missing_restricted_stock'
p2569
I0
sS'missing_shared_receipt_with_poi'
p2570
I0
sS'missing_long_term_incentive'
p2571
I0
ssS'BUCHANAN HAROLD G'
p2572
(dp2573
g3
I1088
sg4
g5
sS'missing_bonus'
p2574
I0
sS'missing_director_fees'
p2575
I1
sg8
I600
sg9
F0.0
sg10
I00
sg11
I304805
sg12
S'john.buchanan@enron.com'
p2576
sg14
I0
sg15
g5
sS'missing_from_messages'
p2577
I0
sS'missing_total_stock_value'
p2578
I0
sS'missing_exercised_stock_options'
p2579
I0
sg19
g5
sS'missing_deferral_payments'
p2580
I1
sg21
I23
sS'missing_to_messages'
p2581
I0
sg23
g5
sg24
I125
sg25
I1215
sS'missing_loan_advances'
p2582
I1
sS'missing_expenses'
p2583
I0
sg28
g5
sg29
I500000
sg30
I1014505
sS'missing_other'
p2584
I0
sS'missing_from_this_person_to_poi'
p2585
I0
sg33
I0
sS'missing_from_poi_to_this_person'
p2586
I0
sg35
I189041
sg36
I248017
sS'missing_deferred_income'
p2587
I1
sg38
I1054637
sS'missing_total_payments'
p2588
I0
sg40
I825464
sS'missing_salary'
p2589
I0
sS'missing_restricted_stock_deferred'
p2590
I1
sS'missing_restricted_stock'
p2591
I0
sS'missing_shared_receipt_with_poi'
p2592
I0
sS'missing_long_term_incentive'
p2593
I0
ssS'YEAP SOON'
p2594
(dp2595
g3
g5
sg4
g5
sS'missing_bonus'
p2596
I1
sS'missing_director_fees'
p2597
I1
sg8
I55097
sg9
g50
sg10
I00
sg11
g5
sg12
g5
sg14
g5
sg15
g5
sS'missing_from_messages'
p2598
I1
sS'missing_total_stock_value'
p2599
I0
sS'missing_exercised_stock_options'
p2600
I0
sg19
g5
sS'missing_deferral_payments'
p2601
I1
sg21
g5
sS'missing_to_messages'
p2602
I1
sg23
g5
sg24
g5
sg25
g5
sS'missing_loan_advances'
p2603
I1
sS'missing_expenses'
p2604
I0
sg28
g5
sg29
g5
sg30
I192758
sS'missing_other'
p2605
I1
sS'missing_from_this_person_to_poi'
p2606
I1
sg33
g5
sS'missing_from_poi_to_this_person'
p2607
I1
sg35
g5
sg36
g5
sS'missing_deferred_income'
p2608
I1
sg38
I55097
sS'missing_total_payments'
p2609
I0
sg40
I192758
sS'missing_salary'
p2610
I1
sS'missing_restricted_stock_deferred'
p2611
I1
sS'missing_restricted_stock'
p2612
I1
sS'missing_shared_receipt_with_poi'
p2613
I1
sS'missing_long_term_incentive'
p2614
I1
ssS'MURRAY JULIA H'
p2615
(dp2616
g3
I2192
sg4
g5
sS'missing_bonus'
p2617
I0
sS'missing_director_fees'
p2618
I1
sg8
I57580
sg9
F0.00581135449262405
sg10
I00
sg11
I125000
sg12
S'julia.murray@enron.com'
p2619
sg14
I11
sg15
g5
sS'missing_from_messages'
p2620
I0
sS'missing_total_stock_value'
p2621
I0
sS'missing_exercised_stock_options'
p2622
I0
sg19
g5
sS'missing_deferral_payments'
p2623
I1
sg21
I395
sS'missing_to_messages'
p2624
I0
sg23
g5
sg24
I45
sg25
I330
sS'missing_loan_advances'
p2625
I1
sS'missing_expenses'
p2626
I0
sg28
g5
sg29
I400000
sg30
I597461
sS'missing_other'
p2627
I0
sS'missing_from_this_person_to_poi'
p2628
I0
sg33
I2
sS'missing_from_poi_to_this_person'
p2629
I0
sg35
I196983
sg36
I229284
sS'missing_deferred_income'
p2630
I1
sg38
I812194
sS'missing_total_payments'
p2631
I0
sg40
I400478
sS'missing_salary'
p2632
I0
sS'missing_restricted_stock_deferred'
p2633
I1
sS'missing_restricted_stock'
p2634
I0
sS'missing_shared_receipt_with_poi'
p2635
I0
sS'missing_long_term_incentive'
p2636
I0
ssS'GARLAND C KEVIN'
p2637
(dp2638
g3
I209
sg4
g5
sS'missing_bonus'
p2639
I0
sS'missing_director_fees'
p2640
I1
sg8
I48405
sg9
F0.14624505928853754
sg10
I00
sg11
I375304
sg12
S'kevin.garland@enron.com'
p2641
sg14
I10
sg15
g5
sS'missing_from_messages'
p2642
I0
sS'missing_total_stock_value'
p2643
I0
sS'missing_exercised_stock_options'
p2644
I0
sg19
g5
sS'missing_deferral_payments'
p2645
I1
sg21
I178
sS'missing_to_messages'
p2646
I0
sg23
g5
sg24
I44
sg25
I60814
sS'missing_loan_advances'
p2647
I1
sS'missing_expenses'
p2648
I0
sg28
g5
sg29
I850000
sg30
I896153
sS'missing_other'
p2649
I0
sS'missing_from_this_person_to_poi'
p2650
I0
sg33
I27
sS'missing_from_poi_to_this_person'
p2651
I0
sg35
I259907
sg36
I231946
sS'missing_deferred_income'
p2652
I1
sg38
I1566469
sS'missing_total_payments'
p2653
I0
sg40
I636246
sS'missing_salary'
p2654
I0
sS'missing_restricted_stock_deferred'
p2655
I1
sS'missing_restricted_stock'
p2656
I0
sS'missing_shared_receipt_with_poi'
p2657
I0
sS'missing_long_term_incentive'
p2658
I0
ssS'DODSON KEITH'
p2659
(dp2660
g3
I176
sg4
g5
sS'missing_bonus'
p2661
I0
sS'missing_director_fees'
p2662
I1
sg8
I28164
sg9
F0.06842105263157895
sg10
I00
sg11
g5
sg12
S'keith.dodson@enron.com'
p2663
sg14
I10
sg15
g5
sS'missing_from_messages'
p2664
I0
sS'missing_total_stock_value'
p2665
I1
sS'missing_exercised_stock_options'
p2666
I1
sg19
g5
sS'missing_deferral_payments'
p2667
I1
sg21
I114
sS'missing_to_messages'
p2668
I0
sg23
g5
sg24
I14
sg25
I774
sS'missing_loan_advances'
p2669
I1
sS'missing_expenses'
p2670
I0
sg28
g5
sg29
I70000
sg30
g5
sS'missing_other'
p2671
I0
sS'missing_from_this_person_to_poi'
p2672
I0
sg33
I3
sS'missing_from_poi_to_this_person'
p2673
I0
sg35
g5
sg36
I221003
sS'missing_deferred_income'
p2674
I1
sg38
I319941
sS'missing_total_payments'
p2675
I0
sg40
g5
sS'missing_salary'
p2676
I0
sS'missing_restricted_stock_deferred'
p2677
I1
sS'missing_restricted_stock'
p2678
I1
sS'missing_shared_receipt_with_poi'
p2679
I0
sS'missing_long_term_incentive'
p2680
I1
ssS'YEAGER F SCOTT'
p2681
(dp2682
g3
g5
sg4
g5
sS'missing_bonus'
p2683
I1
sS'missing_director_fees'
p2684
I1
sg8
I53947
sg9
g50
sg10
I01
sg11
g5
sg12
S'scott.yeager@enron.com'
p2685
sg14
g5
sg15
g5
sS'missing_from_messages'
p2686
I1
sS'missing_total_stock_value'
p2687
I0
sS'missing_exercised_stock_options'
p2688
I0
sg19
g5
sS'missing_deferral_payments'
p2689
I1
sg21
g5
sS'missing_to_messages'
p2690
I1
sg23
g5
sg24
g5
sg25
I147950
sS'missing_loan_advances'
p2691
I1
sS'missing_expenses'
p2692
I0
sg28
g5
sg29
g5
sg30
I11884758
sS'missing_other'
p2693
I0
sS'missing_from_this_person_to_poi'
p2694
I1
sg33
g5
sS'missing_from_poi_to_this_person'
p2695
I1
sg35
I3576206
sg36
I158403
sS'missing_deferred_income'
p2696
I1
sg38
I360300
sS'missing_total_payments'
p2697
I0
sg40
I8308552
sS'missing_salary'
p2698
I0
sS'missing_restricted_stock_deferred'
p2699
I1
sS'missing_restricted_stock'
p2700
I0
sS'missing_shared_receipt_with_poi'
p2701
I1
sS'missing_long_term_incentive'
p2702
I1
ssS'HIRKO JOSEPH'
p2703
(dp2704
g3
g5
sg4
I10259
sS'missing_bonus'
p2705
I1
sS'missing_director_fees'
p2706
I1
sg8
I77978
sg9
g50
sg10
I01
sg11
g5
sg12
S'joe.hirko@enron.com'
p2707
sg14
g5
sg15
g5
sS'missing_from_messages'
p2708
I1
sS'missing_total_stock_value'
p2709
I0
sS'missing_exercised_stock_options'
p2710
I0
sg19
g5
sS'missing_deferral_payments'
p2711
I0
sg21
g5
sS'missing_to_messages'
p2712
I1
sg23
g5
sg24
g5
sg25
I2856
sS'missing_loan_advances'
p2713
I1
sS'missing_expenses'
p2714
I0
sg28
g5
sg29
g5
sg30
I30766064
sS'missing_other'
p2715
I0
sS'missing_from_this_person_to_poi'
p2716
I1
sg33
g5
sS'missing_from_poi_to_this_person'
p2717
I1
sg35
g5
sg36
g5
sS'missing_deferred_income'
p2718
I1
sg38
I91093
sS'missing_total_payments'
p2719
I0
sg40
I30766064
sS'missing_salary'
p2720
I1
sS'missing_restricted_stock_deferred'
p2721
I1
sS'missing_restricted_stock'
p2722
I1
sS'missing_shared_receipt_with_poi'
p2723
I1
sS'missing_long_term_incentive'
p2724
I1
ssS'DIETRICH JANET R'
p2725
(dp2726
g3
I2572
sg4
g5
sS'missing_bonus'
p2727
I0
sS'missing_director_fees'
p2728
I1
sg8
I3475
sg9
F0.12106261859582543
sg10
I00
sg11
I556416
sg12
S'janet.dietrich@enron.com'
p2729
sg14
I305
sg15
g5
sS'missing_from_messages'
p2730
I0
sS'missing_total_stock_value'
p2731
I0
sS'missing_exercised_stock_options'
p2732
I0
sg19
g5
sS'missing_deferral_payments'
p2733
I1
sg21
I1902
sS'missing_to_messages'
p2734
I0
sg23
g5
sg24
I63
sg25
I473
sS'missing_loan_advances'
p2735
I1
sS'missing_expenses'
p2736
I0
sg28
g5
sg29
I600000
sg30
I1865087
sS'missing_other'
p2737
I0
sS'missing_from_this_person_to_poi'
p2738
I0
sg33
I14
sS'missing_from_poi_to_this_person'
p2739
I0
sg35
I315068
sg36
I250100
sS'missing_deferred_income'
p2740
I1
sg38
I1410464
sS'missing_total_payments'
p2741
I0
sg40
I1550019
sS'missing_salary'
p2742
I0
sS'missing_restricted_stock_deferred'
p2743
I1
sS'missing_restricted_stock'
p2744
I0
sS'missing_shared_receipt_with_poi'
p2745
I0
sS'missing_long_term_incentive'
p2746
I0
ssS'DERRICK JR. JAMES V'
p2747
(dp2748
g3
I2181
sg4
g5
sS'missing_bonus'
p2749
I0
sS'missing_director_fees'
p2750
I1
sg8
I51124
sg9
F0.027184466019417475
sg10
I00
sg11
I484000
sg12
S'james.derrick@enron.com'
p2751
sg14
I64
sg15
I-1284000
sS'missing_from_messages'
p2752
I0
sS'missing_total_stock_value'
p2753
I0
sS'missing_exercised_stock_options'
p2754
I0
sg19
I-1787380
sS'missing_deferral_payments'
p2755
I1
sg21
I1401
sS'missing_to_messages'
p2756
I0
sg23
g5
sg24
I909
sg25
I7482
sS'missing_loan_advances'
p2757
I1
sS'missing_expenses'
p2758
I0
sg28
g5
sg29
I800000
sg30
I8831913
sS'missing_other'
p2759
I0
sS'missing_from_this_person_to_poi'
p2760
I0
sg33
I20
sS'missing_from_poi_to_this_person'
p2761
I0
sg35
I1787380
sg36
I492375
sS'missing_deferred_income'
p2762
I0
sg38
I550981
sS'missing_total_payments'
p2763
I0
sg40
I8831913
sS'missing_salary'
p2764
I0
sS'missing_restricted_stock_deferred'
p2765
I0
sS'missing_restricted_stock'
p2766
I0
sS'missing_shared_receipt_with_poi'
p2767
I0
sS'missing_long_term_incentive'
p2768
I0
ssS'FREVERT MARK A'
p2769
(dp2770
g3
I3275
sg4
I6426990
sS'missing_bonus'
p2771
I0
sS'missing_director_fees'
p2772
I1
sg8
I86987
sg9
F0.07524271844660194
sg10
I00
sg11
I1617011
sg12
S'mark.frevert@enron.com'
p2773
sg14
I242
sg15
I-3367011
sS'missing_from_messages'
p2774
I0
sS'missing_total_stock_value'
p2775
I0
sS'missing_exercised_stock_options'
p2776
I0
sg19
g5
sS'missing_deferral_payments'
p2777
I0
sg21
I2979
sS'missing_to_messages'
p2778
I0
sg23
I2000000
sg24
I21
sg25
I7427621
sS'missing_loan_advances'
p2779
I0
sS'missing_expenses'
p2780
I0
sg28
g5
sg29
I2000000
sg30
I14622185
sS'missing_other'
p2781
I0
sS'missing_from_this_person_to_poi'
p2782
I0
sg33
I6
sS'missing_from_poi_to_this_person'
p2783
I0
sg35
I4188667
sg36
I1060932
sS'missing_deferred_income'
p2784
I0
sg38
I17252530
sS'missing_total_payments'
p2785
I0
sg40
I10433518
sS'missing_salary'
p2786
I0
sS'missing_restricted_stock_deferred'
p2787
I1
sS'missing_restricted_stock'
p2788
I0
sS'missing_shared_receipt_with_poi'
p2789
I0
sS'missing_long_term_incentive'
p2790
I0
ssS'PAI LOU L'
p2791
(dp2792
g3
g5
sg4
g5
sS'missing_bonus'
p2793
I0
sS'missing_director_fees'
p2794
I1
sg8
I32047
sg9
g50
sg10
I00
sg11
g5
sg12
S'lou.pai@enron.com'
p2795
sg14
g5
sg15
g5
sS'missing_from_messages'
p2796
I1
sS'missing_total_stock_value'
p2797
I0
sS'missing_exercised_stock_options'
p2798
I0
sg19
g5
sS'missing_deferral_payments'
p2799
I1
sg21
g5
sS'missing_to_messages'
p2800
I1
sg23
g5
sg24
g5
sg25
I1829457
sS'missing_loan_advances'
p2801
I1
sS'missing_expenses'
p2802
I0
sg28
g5
sg29
I1000000
sg30
I23817930
sS'missing_other'
p2803
I0
sS'missing_from_this_person_to_poi'
p2804
I1
sg33
g5
sS'missing_from_poi_to_this_person'
p2805
I1
sg35
I8453763
sg36
I261879
sS'missing_deferred_income'
p2806
I1
sg38
I3123383
sS'missing_total_payments'
p2807
I0
sg40
I15364167
sS'missing_salary'
p2808
I0
sS'missing_restricted_stock_deferred'
p2809
I1
sS'missing_restricted_stock'
p2810
I0
sS'missing_shared_receipt_with_poi'
p2811
I1
sS'missing_long_term_incentive'
p2812
I1
ssS'HAYSLETT RODERICK J'
p2813
(dp2814
g3
I2649
sg4
g5
sS'missing_bonus'
p2815
I1
sS'missing_director_fees'
p2816
I1
sg8
g5
sg9
F0.019676549865229112
sg10
I00
sg11
g5
sg12
S'rod.hayslett@enron.com'
p2817
sg14
I35
sg15
g5
sS'missing_from_messages'
p2818
I0
sS'missing_total_stock_value'
p2819
I0
sS'missing_exercised_stock_options'
p2820
I1
sg19
g5
sS'missing_deferral_payments'
p2821
I1
sg21
I571
sS'missing_to_messages'
p2822
I0
sg23
g5
sg24
I1061
sg25
g5
sS'missing_loan_advances'
p2823
I1
sS'missing_expenses'
p2824
I1
sg28
g5
sg29
g5
sg30
I346663
sS'missing_other'
p2825
I1
sS'missing_from_this_person_to_poi'
p2826
I0
sg33
I38
sS'missing_from_poi_to_this_person'
p2827
I0
sg35
I346663
sg36
g5
sS'missing_deferred_income'
p2828
I1
sg38
g5
sS'missing_total_payments'
p2829
I1
sg40
g5
sS'missing_salary'
p2830
I1
sS'missing_restricted_stock_deferred'
p2831
I1
sS'missing_restricted_stock'
p2832
I0
sS'missing_shared_receipt_with_poi'
p2833
I0
sS'missing_long_term_incentive'
p2834
I1
ssS'BAY FRANKLIN R'
p2835
(dp2836
g3
g5
sg4
I260455
sS'missing_bonus'
p2837
I0
sS'missing_director_fees'
p2838
I1
sg8
I129142
sg9
g50
sg10
I00
sg11
g5
sg12
S'frank.bay@enron.com'
p2839
sg14
g5
sg15
I-201641
sS'missing_from_messages'
p2840
I1
sS'missing_total_stock_value'
p2841
I0
sS'missing_exercised_stock_options'
p2842
I1
sg19
I-82782
sS'missing_deferral_payments'
p2843
I0
sg21
g5
sS'missing_to_messages'
p2844
I1
sg23
g5
sg24
g5
sg25
I69
sS'missing_loan_advances'
p2845
I1
sS'missing_expenses'
p2846
I0
sg28
g5
sg29
I400000
sg30
I63014
sS'missing_other'
p2847
I0
sS'missing_from_this_person_to_poi'
p2848
I1
sg33
g5
sS'missing_from_poi_to_this_person'
p2849
I1
sg35
I145796
sg36
I239671
sS'missing_deferred_income'
p2850
I0
sg38
I827696
sS'missing_total_payments'
p2851
I0
sg40
g5
sS'missing_salary'
p2852
I0
sS'missing_restricted_stock_deferred'
p2853
I0
sS'missing_restricted_stock'
p2854
I0
sS'missing_shared_receipt_with_poi'
p2855
I1
sS'missing_long_term_incentive'
p2856
I1
ssS'MCCARTY DANNY J'
p2857
(dp2858
g3
I1433
sg4
g5
sS'missing_bonus'
p2859
I1
sS'missing_director_fees'
p2860
I1
sg8
g5
sg9
F0.016383495145631068
sg10
I00
sg11
g5
sg12
S'danny.mccarty@enron.com'
p2861
sg14
I25
sg15
g5
sS'missing_from_messages'
p2862
I0
sS'missing_total_stock_value'
p2863
I0
sS'missing_exercised_stock_options'
p2864
I0
sg19
g5
sS'missing_deferral_payments'
p2865
I1
sg21
I508
sS'missing_to_messages'
p2866
I0
sg23
g5
sg24
I215
sg25
g5
sS'missing_loan_advances'
p2867
I1
sS'missing_expenses'
p2868
I1
sg28
g5
sg29
g5
sg30
I758931
sS'missing_other'
p2869
I1
sS'missing_from_this_person_to_poi'
p2870
I0
sg33
I2
sS'missing_from_poi_to_this_person'
p2871
I0
sg35
I94556
sg36
g5
sS'missing_deferred_income'
p2872
I1
sg38
g5
sS'missing_total_payments'
p2873
I1
sg40
I664375
sS'missing_salary'
p2874
I1
sS'missing_restricted_stock_deferred'
p2875
I1
sS'missing_restricted_stock'
p2876
I0
sS'missing_shared_receipt_with_poi'
p2877
I0
sS'missing_long_term_incentive'
p2878
I1
ssS'FUGH JOHN L'
p2879
(dp2880
g3
g5
sg4
I50591
sS'missing_bonus'
p2881
I1
sS'missing_director_fees'
p2882
I1
sg8
g5
sg9
g50
sg10
I00
sg11
g5
sg12
g5
sg14
g5
sg15
g5
sS'missing_from_messages'
p2883
I1
sS'missing_total_stock_value'
p2884
I0
sS'missing_exercised_stock_options'
p2885
I0
sg19
g5
sS'missing_deferral_payments'
p2886
I0
sg21
g5
sS'missing_to_messages'
p2887
I1
sg23
g5
sg24
g5
sg25
g5
sS'missing_loan_advances'
p2888
I1
sS'missing_expenses'
p2889
I1
sg28
g5
sg29
g5
sg30
I176378
sS'missing_other'
p2890
I1
sS'missing_from_this_person_to_poi'
p2891
I1
sg33
g5
sS'missing_from_poi_to_this_person'
p2892
I1
sg35
g5
sg36
g5
sS'missing_deferred_income'
p2893
I1
sg38
I50591
sS'missing_total_payments'
p2894
I0
sg40
I176378
sS'missing_salary'
p2895
I1
sS'missing_restricted_stock_deferred'
p2896
I1
sS'missing_restricted_stock'
p2897
I1
sS'missing_shared_receipt_with_poi'
p2898
I1
sS'missing_long_term_incentive'
p2899
I1
ssS'SCRIMSHAW MATTHEW'
p2900
(dp2901
g3
g5
sg4
g5
sS'missing_bonus'
p2902
I1
sS'missing_director_fees'
p2903
I1
sg8
g5
sg9
g50
sg10
I00
sg11
g5
sg12
S'matthew.scrimshaw@enron.com'
p2904
sg14
g5
sg15
g5
sS'missing_from_messages'
p2905
I1
sS'missing_total_stock_value'
p2906
I0
sS'missing_exercised_stock_options'
p2907
I0
sg19
g5
sS'missing_deferral_payments'
p2908
I1
sg21
g5
sS'missing_to_messages'
p2909
I1
sg23
g5
sg24
g5
sg25
g5
sS'missing_loan_advances'
p2910
I1
sS'missing_expenses'
p2911
I1
sg28
g5
sg29
g5
sg30
I759557
sS'missing_other'
p2912
I1
sS'missing_from_this_person_to_poi'
p2913
I1
sg33
g5
sS'missing_from_poi_to_this_person'
p2914
I1
sg35
g5
sg36
g5
sS'missing_deferred_income'
p2915
I1
sg38
g5
sS'missing_total_payments'
p2916
I1
sg40
I759557
sS'missing_salary'
p2917
I1
sS'missing_restricted_stock_deferred'
p2918
I1
sS'missing_restricted_stock'
p2919
I1
sS'missing_shared_receipt_with_poi'
p2920
I1
sS'missing_long_term_incentive'
p2921
I1
ssS'KOENIG MARK E'
p2922
(dp2923
g3
I2374
sg4
g5
sS'missing_bonus'
p2924
I0
sS'missing_director_fees'
p2925
I1
sg8
I127017
sg9
F0.02792607802874743
sg10
I01
sg11
I300000
sg12
S'mark.koenig@enron.com'
p2926
sg14
I53
sg15
g5
sS'missing_from_messages'
p2927
I0
sS'missing_total_stock_value'
p2928
I0
sS'missing_exercised_stock_options'
p2929
I0
sg19
g5
sS'missing_deferral_payments'
p2930
I1
sg21
I2271
sS'missing_to_messages'
p2931
I0
sg23
g5
sg24
I61
sg25
I150458
sS'missing_loan_advances'
p2932
I1
sS'missing_expenses'
p2933
I0
sg28
g5
sg29
I700000
sg30
I1920055
sS'missing_other'
p2934
I0
sS'missing_from_this_person_to_poi'
p2935
I0
sg33
I15
sS'missing_from_poi_to_this_person'
p2936
I0
sg35
I1248318
sg36
I309946
sS'missing_deferred_income'
p2937
I1
sg38
I1587421
sS'missing_total_payments'
p2938
I0
sg40
I671737
sS'missing_salary'
p2939
I0
sS'missing_restricted_stock_deferred'
p2940
I1
sS'missing_restricted_stock'
p2941
I0
sS'missing_shared_receipt_with_poi'
p2942
I0
sS'missing_long_term_incentive'
p2943
I0
ssS'SAVAGE FRANK'
p2944
(dp2945
g3
g5
sg4
g5
sS'missing_bonus'
p2946
I1
sS'missing_director_fees'
p2947
I0
sg8
g5
sg9
g50
sg10
I00
sg11
g5
sg12
g5
sg14
g5
sg15
I-121284
sS'missing_from_messages'
p2948
I1
sS'missing_total_stock_value'
p2949
I1
sS'missing_exercised_stock_options'
p2950
I1
sg19
g5
sS'missing_deferral_payments'
p2951
I1
sg21
g5
sS'missing_to_messages'
p2952
I1
sg23
g5
sg24
g5
sg25
g5
sS'missing_loan_advances'
p2953
I1
sS'missing_expenses'
p2954
I1
sg28
I125034
sg29
g5
sg30
g5
sS'missing_other'
p2955
I1
sS'missing_from_this_person_to_poi'
p2956
I1
sg33
g5
sS'missing_from_poi_to_this_person'
p2957
I1
sg35
g5
sg36
g5
sS'missing_deferred_income'
p2958
I0
sg38
I3750
sS'missing_total_payments'
p2959
I0
sg40
g5
sS'missing_salary'
p2960
I1
sS'missing_restricted_stock_deferred'
p2961
I1
sS'missing_restricted_stock'
p2962
I1
sS'missing_shared_receipt_with_poi'
p2963
I1
sS'missing_long_term_incentive'
p2964
I1
ssS'IZZO LAWRENCE L'
p2965
(dp2966
g3
I496
sg4
g5
sS'missing_bonus'
p2967
I1
sS'missing_director_fees'
p2968
I1
sg8
I28093
sg9
F0.06407766990291262
sg10
I00
sg11
I312500
sg12
S'larry.izzo@enron.com'
p2969
sg14
I28
sg15
g5
sS'missing_from_messages'
p2970
I0
sS'missing_total_stock_value'
p2971
I0
sS'missing_exercised_stock_options'
p2972
I0
sg19
g5
sS'missing_deferral_payments'
p2973
I1
sg21
I437
sS'missing_to_messages'
p2974
I0
sg23
g5
sg24
I19
sg25
I1553729
sS'missing_loan_advances'
p2975
I1
sS'missing_expenses'
p2976
I0
sg28
g5
sg29
g5
sg30
I5819980
sS'missing_other'
p2977
I0
sS'missing_from_this_person_to_poi'
p2978
I0
sg33
I5
sS'missing_from_poi_to_this_person'
p2979
I0
sg35
I3654808
sg36
I85274
sS'missing_deferred_income'
p2980
I1
sg38
I1979596
sS'missing_total_payments'
p2981
I0
sg40
I2165172
sS'missing_salary'
p2982
I0
sS'missing_restricted_stock_deferred'
p2983
I1
sS'missing_restricted_stock'
p2984
I0
sS'missing_shared_receipt_with_poi'
p2985
I0
sS'missing_long_term_incentive'
p2986
I0
ssS'TILNEY ELIZABETH A'
p2987
(dp2988
g3
I460
sg4
g5
sS'missing_bonus'
p2989
I0
sS'missing_director_fees'
p2990
I1
sg8
g5
sg9
F0.04384133611691023
sg10
I00
sg11
I275000
sg12
S'elizabeth.tilney@enron.com'
p2991
sg14
I10
sg15
I-575000
sS'missing_from_messages'
p2992
I0
sS'missing_total_stock_value'
p2993
I0
sS'missing_exercised_stock_options'
p2994
I0
sg19
g5
sS'missing_deferral_payments'
p2995
I1
sg21
I379
sS'missing_to_messages'
p2996
I0
sg23
g5
sg24
I19
sg25
I152055
sS'missing_loan_advances'
p2997
I1
sS'missing_expenses'
p2998
I1
sg28
g5
sg29
I300000
sg30
I1168042
sS'missing_other'
p2999
I0
sS'missing_from_this_person_to_poi'
p3000
I0
sg33
I11
sS'missing_from_poi_to_this_person'
p3001
I0
sg35
I576792
sg36
I247338
sS'missing_deferred_income'
p3002
I0
sg38
I399393
sS'missing_total_payments'
p3003
I0
sg40
I591250
sS'missing_salary'
p3004
I0
sS'missing_restricted_stock_deferred'
p3005
I1
sS'missing_restricted_stock'
p3006
I0
sS'missing_shared_receipt_with_poi'
p3007
I0
sS'missing_long_term_incentive'
p3008
I0
ssS'MARTIN AMANDA K'
p3009
(dp3010
g3
I1522
sg4
I85430
sS'missing_bonus'
p3011
I1
sS'missing_director_fees'
p3012
I1
sg8
I8211
sg9
F0.0045662100456621
sg10
I00
sg11
I5145434
sg12
S'a..martin@enron.com'
p3013
sg14
I8
sg15
g5
sS'missing_from_messages'
p3014
I0
sS'missing_total_stock_value'
p3015
I0
sS'missing_exercised_stock_options'
p3016
I0
sg19
g5
sS'missing_deferral_payments'
p3017
I0
sg21
I477
sS'missing_to_messages'
p3018
I0
sg23
g5
sg24
I230
sg25
I2818454
sS'missing_loan_advances'
p3019
I1
sS'missing_expenses'
p3020
I0
sg28
g5
sg29
g5
sg30
I2070306
sS'missing_other'
p3021
I0
sS'missing_from_this_person_to_poi'
p3022
I0
sg33
I0
sS'missing_from_poi_to_this_person'
p3023
I0
sg35
g5
sg36
I349487
sS'missing_deferred_income'
p3024
I1
sg38
I8407016
sS'missing_total_payments'
p3025
I0
sg40
I2070306
sS'missing_salary'
p3026
I0
sS'missing_restricted_stock_deferred'
p3027
I1
sS'missing_restricted_stock'
p3028
I1
sS'missing_shared_receipt_with_poi'
p3029
I0
sS'missing_long_term_incentive'
p3030
I0
ssS'BUY RICHARD B'
p3031
(dp3032
g3
I3523
sg4
I649584
sS'missing_bonus'
p3033
I0
sS'missing_director_fees'
p3034
I1
sg8
g5
sg9
F0.04960664335664336
sg10
I00
sg11
I769862
sg12
S'rick.buy@enron.com'
p3035
sg14
I156
sg15
I-694862
sS'missing_from_messages'
p3036
I0
sS'missing_total_stock_value'
p3037
I0
sS'missing_exercised_stock_options'
p3038
I0
sg19
g5
sS'missing_deferral_payments'
p3039
I0
sg21
I2333
sS'missing_to_messages'
p3040
I0
sg23
g5
sg24
I1053
sg25
I400572
sS'missing_loan_advances'
p3041
I1
sS'missing_expenses'
p3042
I1
sg28
g5
sg29
I900000
sg30
I3444470
sS'missing_other'
p3043
I0
sS'missing_from_this_person_to_poi'
p3044
I0
sg33
I71
sS'missing_from_poi_to_this_person'
p3045
I0
sg35
I901657
sg36
I330546
sS'missing_deferred_income'
p3046
I0
sg38
I2355702
sS'missing_total_payments'
p3047
I0
sg40
I2542813
sS'missing_salary'
p3048
I0
sS'missing_restricted_stock_deferred'
p3049
I1
sS'missing_restricted_stock'
p3050
I0
sS'missing_shared_receipt_with_poi'
p3051
I0
sS'missing_long_term_incentive'
p3052
I0
ssS'GRAMM WENDY L'
p3053
(dp3054
g3
g5
sg4
g5
sS'missing_bonus'
p3055
I1
sS'missing_director_fees'
p3056
I0
sg8
g5
sg9
g50
sg10
I00
sg11
g5
sg12
g5
sg14
g5
sg15
g5
sS'missing_from_messages'
p3057
I1
sS'missing_total_stock_value'
p3058
I1
sS'missing_exercised_stock_options'
p3059
I1
sg19
g5
sS'missing_deferral_payments'
p3060
I1
sg21
g5
sS'missing_to_messages'
p3061
I1
sg23
g5
sg24
g5
sg25
g5
sS'missing_loan_advances'
p3062
I1
sS'missing_expenses'
p3063
I1
sg28
I119292
sg29
g5
sg30
g5
sS'missing_other'
p3064
I1
sS'missing_from_this_person_to_poi'
p3065
I1
sg33
g5
sS'missing_from_poi_to_this_person'
p3066
I1
sg35
g5
sg36
g5
sS'missing_deferred_income'
p3067
I1
sg38
I119292
sS'missing_total_payments'
p3068
I0
sg40
g5
sS'missing_salary'
p3069
I1
sS'missing_restricted_stock_deferred'
p3070
I1
sS'missing_restricted_stock'
p3071
I1
sS'missing_shared_receipt_with_poi'
p3072
I1
sS'missing_long_term_incentive'
p3073
I1
ssS'CAUSEY RICHARD A'
p3074
(dp3075
g3
I1892
sg4
g5
sS'missing_bonus'
p3076
I0
sS'missing_director_fees'
p3077
I1
sg8
I30674
sg9
F0.03606388459556929
sg10
I01
sg11
I350000
sg12
S'richard.causey@enron.com'
p3078
sg14
I58
sg15
I-235000
sS'missing_from_messages'
p3079
I0
sS'missing_total_stock_value'
p3080
I0
sS'missing_exercised_stock_options'
p3081
I1
sg19
g5
sS'missing_deferral_payments'
p3082
I1
sg21
I1585
sS'missing_to_messages'
p3083
I0
sg23
g5
sg24
I49
sg25
I307895
sS'missing_loan_advances'
p3084
I1
sS'missing_expenses'
p3085
I0
sg28
g5
sg29
I1000000
sg30
I2502063
sS'missing_other'
p3086
I0
sS'missing_from_this_person_to_poi'
p3087
I0
sg33
I12
sS'missing_from_poi_to_this_person'
p3088
I0
sg35
I2502063
sg36
I415189
sS'missing_deferred_income'
p3089
I0
sg38
I1868758
sS'missing_total_payments'
p3090
I0
sg40
g5
sS'missing_salary'
p3091
I0
sS'missing_restricted_stock_deferred'
p3092
I1
sS'missing_restricted_stock'
p3093
I0
sS'missing_shared_receipt_with_poi'
p3094
I0
sS'missing_long_term_incentive'
p3095
I0
ssS'TAYLOR MITCHELL S'
p3096
(dp3097
g3
I533
sg4
I227449
sS'missing_bonus'
p3098
I0
sS'missing_director_fees'
p3099
I1
sg8
g5
sg9
F0.0
sg10
I00
sg11
g5
sg12
S'mitchell.taylor@enron.com'
p3100
sg14
I0
sg15
g5
sS'missing_from_messages'
p3101
I0
sS'missing_total_stock_value'
p3102
I0
sS'missing_exercised_stock_options'
p3103
I0
sg19
g5
sS'missing_deferral_payments'
p3104
I0
sg21
I300
sS'missing_to_messages'
p3105
I0
sg23
g5
sg24
I29
sg25
g5
sS'missing_loan_advances'
p3106
I1
sS'missing_expenses'
p3107
I1
sg28
g5
sg29
I600000
sg30
I3745048
sS'missing_other'
p3108
I1
sS'missing_from_this_person_to_poi'
p3109
I0
sg33
I0
sS'missing_from_poi_to_this_person'
p3110
I0
sg35
I563798
sg36
I265214
sS'missing_deferred_income'
p3111
I1
sg38
I1092663
sS'missing_total_payments'
p3112
I0
sg40
I3181250
sS'missing_salary'
p3113
I0
sS'missing_restricted_stock_deferred'
p3114
I1
sS'missing_restricted_stock'
p3115
I0
sS'missing_shared_receipt_with_poi'
p3116
I0
sS'missing_long_term_incentive'
p3117
I1
ssS'DONAHUE JR JEFFREY M'
p3118
(dp3119
g3
I865
sg4
g5
sS'missing_bonus'
p3120
I0
sS'missing_director_fees'
p3121
I1
sg8
I96268
sg9
F0.22435174746335965
sg10
I00
sg11
g5
sg12
S'jeff.donahue@enron.com'
p3122
sg14
I188
sg15
I-300000
sS'missing_from_messages'
p3123
I0
sS'missing_total_stock_value'
p3124
I0
sS'missing_exercised_stock_options'
p3125
I0
sg19
g5
sS'missing_deferral_payments'
p3126
I1
sg21
I772
sS'missing_to_messages'
p3127
I0
sg23
g5
sg24
I22
sg25
I891
sS'missing_loan_advances'
p3128
I1
sS'missing_expenses'
p3129
I0
sg28
g5
sg29
I800000
sg30
I1080988
sS'missing_other'
p3130
I0
sS'missing_from_this_person_to_poi'
p3131
I0
sg33
I11
sS'missing_from_poi_to_this_person'
p3132
I0
sg35
I315068
sg36
I278601
sS'missing_deferred_income'
p3133
I0
sg38
I875760
sS'missing_total_payments'
p3134
I0
sg40
I765920
sS'missing_salary'
p3135
I0
sS'missing_restricted_stock_deferred'
p3136
I1
sS'missing_restricted_stock'
p3137
I0
sS'missing_shared_receipt_with_poi'
p3138
I0
sS'missing_long_term_incentive'
p3139
I1
ssS'GLISAN JR BEN F'
p3140
(dp3141
g3
I873
sg4
g5
sS'missing_bonus'
p3142
I0
sS'missing_director_fees'
p3143
I1
sg8
I125978
sg9
F0.06524184476940383
sg10
I01
sg11
I71023
sg12
S'ben.glisan@enron.com'
p3144
sg14
I52
sg15
g5
sS'missing_from_messages'
p3145
I0
sS'missing_total_stock_value'
p3146
I0
sS'missing_exercised_stock_options'
p3147
I0
sg19
g5
sS'missing_deferral_payments'
p3148
I1
sg21
I874
sS'missing_to_messages'
p3149
I0
sg23
g5
sg24
I16
sg25
I200308
sS'missing_loan_advances'
p3150
I1
sS'missing_expenses'
p3151
I0
sg28
g5
sg29
I600000
sg30
I778546
sS'missing_other'
p3152
I0
sS'missing_from_this_person_to_poi'
p3153
I0
sg33
I6
sS'missing_from_poi_to_this_person'
p3154
I0
sg35
I393818
sg36
I274975
sS'missing_deferred_income'
p3155
I1
sg38
I1272284
sS'missing_total_payments'
p3156
I0
sg40
I384728
sS'missing_salary'
p3157
I0
sS'missing_restricted_stock_deferred'
p3158
I1
sS'missing_restricted_stock'
p3159
I0
sS'missing_shared_receipt_with_poi'
p3160
I0
sS'missing_long_term_incentive'
p3161
I0
ss.