(lp0
S'poi'
p1
aS'to_messages'
p2
aS'from_messages'
p3
aS'from_this_person_to_poi'
p4
aS'from_poi_to_this_person'
p5
aS'shared_receipt_with_poi'
p6
aS'salary'
p7
aS'deferral_payments'
p8
aS'total_payments'
p9
aS'exercised_stock_options'
p10
aS'bonus'
p11
aS'restricted_stock'
p12
aS'total_stock_value'
p13
aS'expenses'
p14
aS'other'
p15
aS'deferred_income'
p16
aS'long_term_incentive'
p17
aS'missing_bonus'
p18
aS'missing_exercised_stock_options'
p19
aS'missing_to_messages'
p20
aS'interaction_with_poi'
p21
a.