(lp0
S'poi'
p1
aS'to_messages'
p2
aS'from_messages'
p3
aS'from_this_person_to_poi'
p4
aS'from_poi_to_this_person'
p5
aS'shared_receipt_with_poi'
p6
aS'salary'
p7
aS'deferral_payments'
p8
aS'total_payments'
p9
aS'exercised_stock_options'
p10
aS'bonus'
p11
aS'restricted_stock'
p12
aS'restricted_stock_deferred'
p13
aS'total_stock_value'
p14
aS'expenses'
p15
aS'loan_advances'
p16
aS'other'
p17
aS'director_fees'
p18
aS'deferred_income'
p19
aS'long_term_incentive'
p20
aS'missing_bonus'
p21
aS'missing_from_messages'
p22
aS'missing_total_stock_value'
p23
aS'missing_exercised_stock_options'
p24
aS'missing_total_payments'
p25
aS'missing_director_fees'
p26
aS'missing_deferral_payments'
p27
aS'missing_to_messages'
p28
aS'missing_loan_advances'
p29
aS'missing_other'
p30
aS'missing_deferred_income'
p31
aS'missing_from_this_person_to_poi'
p32
aS'missing_salary'
p33
aS'missing_from_poi_to_this_person'
p34
aS'missing_restricted_stock_deferred'
p35
aS'missing_restricted_stock'
p36
aS'missing_expenses'
p37
aS'missing_shared_receipt_with_poi'
p38
aS'missing_long_term_incentive'
p39
aS'interaction_with_poi'
p40
a.